Archive member included to satisfy reference by file (symbol)

/Users/davidebucci/Desktop/Synchronized/Vintage/Computing/Atari/ST/brown/lib/gcc/m68k-atariextrabrowner-elf/10.2.0/../../../../m68k-atariextrabrowner-elf/lib/m68000/libc.a(checkcpu.o)
                              /Users/davidebucci/Desktop/Synchronized/Vintage/Computing/Atari/ST/brown//../bigbrownbuild-git/mintlib-bigbrownbuild-10.2.0/startup/crt0.o (__checkcpu)
/Users/davidebucci/Desktop/Synchronized/Vintage/Computing/Atari/ST/brown/lib/gcc/m68k-atariextrabrowner-elf/10.2.0/../../../../m68k-atariextrabrowner-elf/lib/m68000/libc.a(crtinit.o)
                              /Users/davidebucci/Desktop/Synchronized/Vintage/Computing/Atari/ST/brown//../bigbrownbuild-git/mintlib-bigbrownbuild-10.2.0/startup/crt0.o (__acc_main)
/Users/davidebucci/Desktop/Synchronized/Vintage/Computing/Atari/ST/brown/lib/gcc/m68k-atariextrabrowner-elf/10.2.0/../../../../m68k-atariextrabrowner-elf/lib/m68000/libc.a(getenv.o)
                              /Users/davidebucci/Desktop/Synchronized/Vintage/Computing/Atari/ST/brown/lib/gcc/m68k-atariextrabrowner-elf/10.2.0/../../../../m68k-atariextrabrowner-elf/lib/m68000/libc.a(crtinit.o) (_getenv)
/Users/davidebucci/Desktop/Synchronized/Vintage/Computing/Atari/ST/brown/lib/gcc/m68k-atariextrabrowner-elf/10.2.0/../../../../m68k-atariextrabrowner-elf/lib/m68000/libc.a(globals.o)
                              two_days_no_UTF8.o (symbol from plugin) (_stdin)
/Users/davidebucci/Desktop/Synchronized/Vintage/Computing/Atari/ST/brown/lib/gcc/m68k-atariextrabrowner-elf/10.2.0/../../../../m68k-atariextrabrowner-elf/lib/m68000/libc.a(heapbase.o)
                              /Users/davidebucci/Desktop/Synchronized/Vintage/Computing/Atari/ST/brown//../bigbrownbuild-git/mintlib-bigbrownbuild-10.2.0/startup/crt0.o (__heapbase)
/Users/davidebucci/Desktop/Synchronized/Vintage/Computing/Atari/ST/brown/lib/gcc/m68k-atariextrabrowner-elf/10.2.0/../../../../m68k-atariextrabrowner-elf/lib/m68000/libc.a(ident.o)
                              /Users/davidebucci/Desktop/Synchronized/Vintage/Computing/Atari/ST/brown//../bigbrownbuild-git/mintlib-bigbrownbuild-10.2.0/startup/crt0.o (___Ident_gnulib)
/Users/davidebucci/Desktop/Synchronized/Vintage/Computing/Atari/ST/brown/lib/gcc/m68k-atariextrabrowner-elf/10.2.0/../../../../m68k-atariextrabrowner-elf/lib/m68000/libc.a(ident_dummy_gem.o)
                              /Users/davidebucci/Desktop/Synchronized/Vintage/Computing/Atari/ST/brown//../bigbrownbuild-git/mintlib-bigbrownbuild-10.2.0/startup/crt0.o (___Ident_gem)
/Users/davidebucci/Desktop/Synchronized/Vintage/Computing/Atari/ST/brown/lib/gcc/m68k-atariextrabrowner-elf/10.2.0/../../../../m68k-atariextrabrowner-elf/lib/m68000/libc.a(inistack.o)
                              /Users/davidebucci/Desktop/Synchronized/Vintage/Computing/Atari/ST/brown/lib/gcc/m68k-atariextrabrowner-elf/10.2.0/../../../../m68k-atariextrabrowner-elf/lib/m68000/libc.a(crtinit.o) (__initial_stack)
/Users/davidebucci/Desktop/Synchronized/Vintage/Computing/Atari/ST/brown/lib/gcc/m68k-atariextrabrowner-elf/10.2.0/../../../../m68k-atariextrabrowner-elf/lib/m68000/libc.a(main.o)
                              /Users/davidebucci/Desktop/Synchronized/Vintage/Computing/Atari/ST/brown/lib/gcc/m68k-atariextrabrowner-elf/10.2.0/../../../../m68k-atariextrabrowner-elf/lib/m68000/libc.a(crtinit.o) (__main)
/Users/davidebucci/Desktop/Synchronized/Vintage/Computing/Atari/ST/brown/lib/gcc/m68k-atariextrabrowner-elf/10.2.0/../../../../m68k-atariextrabrowner-elf/lib/m68000/libc.a(malloc.o)
                              /Users/davidebucci/Desktop/Synchronized/Vintage/Computing/Atari/ST/brown/lib/gcc/m68k-atariextrabrowner-elf/10.2.0/../../../../m68k-atariextrabrowner-elf/lib/m68000/libc.a(main.o) (_malloc)
/Users/davidebucci/Desktop/Synchronized/Vintage/Computing/Atari/ST/brown/lib/gcc/m68k-atariextrabrowner-elf/10.2.0/../../../../m68k-atariextrabrowner-elf/lib/m68000/libc.a(realloc.o)
                              /Users/davidebucci/Desktop/Synchronized/Vintage/Computing/Atari/ST/brown/lib/gcc/m68k-atariextrabrowner-elf/10.2.0/../../../../m68k-atariextrabrowner-elf/lib/m68000/libc.a(main.o) (_realloc)
/Users/davidebucci/Desktop/Synchronized/Vintage/Computing/Atari/ST/brown/lib/gcc/m68k-atariextrabrowner-elf/10.2.0/../../../../m68k-atariextrabrowner-elf/lib/m68000/libc.a(setstack.o)
                              /Users/davidebucci/Desktop/Synchronized/Vintage/Computing/Atari/ST/brown/lib/gcc/m68k-atariextrabrowner-elf/10.2.0/../../../../m68k-atariextrabrowner-elf/lib/m68000/libc.a(crtinit.o) (__setstack)
/Users/davidebucci/Desktop/Synchronized/Vintage/Computing/Atari/ST/brown/lib/gcc/m68k-atariextrabrowner-elf/10.2.0/../../../../m68k-atariextrabrowner-elf/lib/m68000/libc.a(stksiz.o)
                              /Users/davidebucci/Desktop/Synchronized/Vintage/Computing/Atari/ST/brown//../bigbrownbuild-git/mintlib-bigbrownbuild-10.2.0/startup/crt0.o (__stksize)
/Users/davidebucci/Desktop/Synchronized/Vintage/Computing/Atari/ST/brown/lib/gcc/m68k-atariextrabrowner-elf/10.2.0/../../../../m68k-atariextrabrowner-elf/lib/m68000/libc.a(unx2dos.o)
                              /Users/davidebucci/Desktop/Synchronized/Vintage/Computing/Atari/ST/brown/lib/gcc/m68k-atariextrabrowner-elf/10.2.0/../../../../m68k-atariextrabrowner-elf/lib/m68000/libc.a(main.o) (__path_dos2unx)
/Users/davidebucci/Desktop/Synchronized/Vintage/Computing/Atari/ST/brown/lib/gcc/m68k-atariextrabrowner-elf/10.2.0/../../../../m68k-atariextrabrowner-elf/lib/m68000/libc.a(initsig.o)
                              /Users/davidebucci/Desktop/Synchronized/Vintage/Computing/Atari/ST/brown/lib/gcc/m68k-atariextrabrowner-elf/10.2.0/../../../../m68k-atariextrabrowner-elf/lib/m68000/libc.a(crtinit.o) (__init_signal)
/Users/davidebucci/Desktop/Synchronized/Vintage/Computing/Atari/ST/brown/lib/gcc/m68k-atariextrabrowner-elf/10.2.0/../../../../m68k-atariextrabrowner-elf/lib/m68000/libc.a(binmode.o)
                              /Users/davidebucci/Desktop/Synchronized/Vintage/Computing/Atari/ST/brown/lib/gcc/m68k-atariextrabrowner-elf/10.2.0/../../../../m68k-atariextrabrowner-elf/lib/m68000/libc.a(main.o) (___set_binmode)
/Users/davidebucci/Desktop/Synchronized/Vintage/Computing/Atari/ST/brown/lib/gcc/m68k-atariextrabrowner-elf/10.2.0/../../../../m68k-atariextrabrowner-elf/lib/m68000/libc.a(defmode.o)
                              /Users/davidebucci/Desktop/Synchronized/Vintage/Computing/Atari/ST/brown/lib/gcc/m68k-atariextrabrowner-elf/10.2.0/../../../../m68k-atariextrabrowner-elf/lib/m68000/libc.a(main.o) (___default_mode__)
/Users/davidebucci/Desktop/Synchronized/Vintage/Computing/Atari/ST/brown/lib/gcc/m68k-atariextrabrowner-elf/10.2.0/../../../../m68k-atariextrabrowner-elf/lib/m68000/libc.a(fclose.o)
                              loadsave.o (symbol from plugin) (_fclose)
/Users/davidebucci/Desktop/Synchronized/Vintage/Computing/Atari/ST/brown/lib/gcc/m68k-atariextrabrowner-elf/10.2.0/../../../../m68k-atariextrabrowner-elf/lib/m68000/libc.a(fgets.o)
                              two_days_no_UTF8.o (symbol from plugin) (_fgets)
/Users/davidebucci/Desktop/Synchronized/Vintage/Computing/Atari/ST/brown/lib/gcc/m68k-atariextrabrowner-elf/10.2.0/../../../../m68k-atariextrabrowner-elf/lib/m68000/libc.a(fileno.o)
                              /Users/davidebucci/Desktop/Synchronized/Vintage/Computing/Atari/ST/brown/lib/gcc/m68k-atariextrabrowner-elf/10.2.0/../../../../m68k-atariextrabrowner-elf/lib/m68000/libc.a(main.o) (_fileno)
/Users/davidebucci/Desktop/Synchronized/Vintage/Computing/Atari/ST/brown/lib/gcc/m68k-atariextrabrowner-elf/10.2.0/../../../../m68k-atariextrabrowner-elf/lib/m68000/libc.a(fopen.o)
                              loadsave.o (symbol from plugin) (_fopen)
/Users/davidebucci/Desktop/Synchronized/Vintage/Computing/Atari/ST/brown/lib/gcc/m68k-atariextrabrowner-elf/10.2.0/../../../../m68k-atariextrabrowner-elf/lib/m68000/libc.a(getchar.o)
                              two_days_no_UTF8.o (symbol from plugin) (_getchar)
/Users/davidebucci/Desktop/Synchronized/Vintage/Computing/Atari/ST/brown/lib/gcc/m68k-atariextrabrowner-elf/10.2.0/../../../../m68k-atariextrabrowner-elf/lib/m68000/libc.a(internals.o)
                              /Users/davidebucci/Desktop/Synchronized/Vintage/Computing/Atari/ST/brown/lib/gcc/m68k-atariextrabrowner-elf/10.2.0/../../../../m68k-atariextrabrowner-elf/lib/m68000/libc.a(fileno.o) (___stdio_check_funcs)
/Users/davidebucci/Desktop/Synchronized/Vintage/Computing/Atari/ST/brown/lib/gcc/m68k-atariextrabrowner-elf/10.2.0/../../../../m68k-atariextrabrowner-elf/lib/m68000/libc.a(newstream.o)
                              /Users/davidebucci/Desktop/Synchronized/Vintage/Computing/Atari/ST/brown/lib/gcc/m68k-atariextrabrowner-elf/10.2.0/../../../../m68k-atariextrabrowner-elf/lib/m68000/libc.a(fopen.o) (___newstream)
/Users/davidebucci/Desktop/Synchronized/Vintage/Computing/Atari/ST/brown/lib/gcc/m68k-atariextrabrowner-elf/10.2.0/../../../../m68k-atariextrabrowner-elf/lib/m68000/libc.a(setvbuf.o)
                              /Users/davidebucci/Desktop/Synchronized/Vintage/Computing/Atari/ST/brown/lib/gcc/m68k-atariextrabrowner-elf/10.2.0/../../../../m68k-atariextrabrowner-elf/lib/m68000/libc.a(main.o) (_setvbuf)
/Users/davidebucci/Desktop/Synchronized/Vintage/Computing/Atari/ST/brown/lib/gcc/m68k-atariextrabrowner-elf/10.2.0/../../../../m68k-atariextrabrowner-elf/lib/m68000/libc.a(stdio_init.o)
                              /Users/davidebucci/Desktop/Synchronized/Vintage/Computing/Atari/ST/brown/lib/gcc/m68k-atariextrabrowner-elf/10.2.0/../../../../m68k-atariextrabrowner-elf/lib/m68000/libc.a(internals.o) (___stdio_init_stream)
/Users/davidebucci/Desktop/Synchronized/Vintage/Computing/Atari/ST/brown/lib/gcc/m68k-atariextrabrowner-elf/10.2.0/../../../../m68k-atariextrabrowner-elf/lib/m68000/libc.a(sysd-stdio.o)
                              /Users/davidebucci/Desktop/Synchronized/Vintage/Computing/Atari/ST/brown/lib/gcc/m68k-atariextrabrowner-elf/10.2.0/../../../../m68k-atariextrabrowner-elf/lib/m68000/libc.a(fclose.o) (___stdio_close)
/Users/davidebucci/Desktop/Synchronized/Vintage/Computing/Atari/ST/brown/lib/gcc/m68k-atariextrabrowner-elf/10.2.0/../../../../m68k-atariextrabrowner-elf/lib/m68000/libc.a(atoi.o)
                              /Users/davidebucci/Desktop/Synchronized/Vintage/Computing/Atari/ST/brown/lib/gcc/m68k-atariextrabrowner-elf/10.2.0/../../../../m68k-atariextrabrowner-elf/lib/m68000/libc.a(crtinit.o) (_atoi)
/Users/davidebucci/Desktop/Synchronized/Vintage/Computing/Atari/ST/brown/lib/gcc/m68k-atariextrabrowner-elf/10.2.0/../../../../m68k-atariextrabrowner-elf/lib/m68000/libc.a(exit.o)
                              /Users/davidebucci/Desktop/Synchronized/Vintage/Computing/Atari/ST/brown/lib/gcc/m68k-atariextrabrowner-elf/10.2.0/../../../../m68k-atariextrabrowner-elf/lib/m68000/libc.a(main.o) (_exit)
/Users/davidebucci/Desktop/Synchronized/Vintage/Computing/Atari/ST/brown/lib/gcc/m68k-atariextrabrowner-elf/10.2.0/../../../../m68k-atariextrabrowner-elf/lib/m68000/libc.a(rand.o)
                              two_days_no_UTF8.o (symbol from plugin) (_rand)
/Users/davidebucci/Desktop/Synchronized/Vintage/Computing/Atari/ST/brown/lib/gcc/m68k-atariextrabrowner-elf/10.2.0/../../../../m68k-atariextrabrowner-elf/lib/m68000/libc.a(strtol.o)
                              /Users/davidebucci/Desktop/Synchronized/Vintage/Computing/Atari/ST/brown/lib/gcc/m68k-atariextrabrowner-elf/10.2.0/../../../../m68k-atariextrabrowner-elf/lib/m68000/libc.a(atoi.o) (_strtol)
/Users/davidebucci/Desktop/Synchronized/Vintage/Computing/Atari/ST/brown/lib/gcc/m68k-atariextrabrowner-elf/10.2.0/../../../../m68k-atariextrabrowner-elf/lib/m68000/libc.a(bcopy.o)
                              /Users/davidebucci/Desktop/Synchronized/Vintage/Computing/Atari/ST/brown/lib/gcc/m68k-atariextrabrowner-elf/10.2.0/../../../../m68k-atariextrabrowner-elf/lib/m68000/libc.a(realloc.o) (___bcopy)
/Users/davidebucci/Desktop/Synchronized/Vintage/Computing/Atari/ST/brown/lib/gcc/m68k-atariextrabrowner-elf/10.2.0/../../../../m68k-atariextrabrowner-elf/lib/m68000/libc.a(bzero.o)
                              /Users/davidebucci/Desktop/Synchronized/Vintage/Computing/Atari/ST/brown/lib/gcc/m68k-atariextrabrowner-elf/10.2.0/../../../../m68k-atariextrabrowner-elf/lib/m68000/libc.a(malloc.o) (___bzero)
/Users/davidebucci/Desktop/Synchronized/Vintage/Computing/Atari/ST/brown/lib/gcc/m68k-atariextrabrowner-elf/10.2.0/../../../../m68k-atariextrabrowner-elf/lib/m68000/libc.a(memccpy.o)
                              /Users/davidebucci/Desktop/Synchronized/Vintage/Computing/Atari/ST/brown/lib/gcc/m68k-atariextrabrowner-elf/10.2.0/../../../../m68k-atariextrabrowner-elf/lib/m68000/libc.a(fgets.o) (___memccpy)
/Users/davidebucci/Desktop/Synchronized/Vintage/Computing/Atari/ST/brown/lib/gcc/m68k-atariextrabrowner-elf/10.2.0/../../../../m68k-atariextrabrowner-elf/lib/m68000/libc.a(memset.o)
                              /Users/davidebucci/Desktop/Synchronized/Vintage/Computing/Atari/ST/brown/lib/gcc/m68k-atariextrabrowner-elf/10.2.0/../../../../m68k-atariextrabrowner-elf/lib/m68000/libc.a(initsig.o) (_memset)
/Users/davidebucci/Desktop/Synchronized/Vintage/Computing/Atari/ST/brown/lib/gcc/m68k-atariextrabrowner-elf/10.2.0/../../../../m68k-atariextrabrowner-elf/lib/m68000/libc.a(strcmp.o)
                              /Users/davidebucci/Desktop/Synchronized/Vintage/Computing/Atari/ST/brown/lib/gcc/m68k-atariextrabrowner-elf/10.2.0/../../../../m68k-atariextrabrowner-elf/lib/m68000/libc.a(unx2dos.o) (_strcmp)
/Users/davidebucci/Desktop/Synchronized/Vintage/Computing/Atari/ST/brown/lib/gcc/m68k-atariextrabrowner-elf/10.2.0/../../../../m68k-atariextrabrowner-elf/lib/m68000/libc.a(strlen.o)
                              /Users/davidebucci/Desktop/Synchronized/Vintage/Computing/Atari/ST/brown/lib/gcc/m68k-atariextrabrowner-elf/10.2.0/../../../../m68k-atariextrabrowner-elf/lib/m68000/libc.a(getenv.o) (_strlen)
/Users/davidebucci/Desktop/Synchronized/Vintage/Computing/Atari/ST/brown/lib/gcc/m68k-atariextrabrowner-elf/10.2.0/../../../../m68k-atariextrabrowner-elf/lib/m68000/libc.a(strncat.o)
                              /Users/davidebucci/Desktop/Synchronized/Vintage/Computing/Atari/ST/brown/lib/gcc/m68k-atariextrabrowner-elf/10.2.0/../../../../m68k-atariextrabrowner-elf/lib/m68000/libc.a(unx2dos.o) (_strncat)
/Users/davidebucci/Desktop/Synchronized/Vintage/Computing/Atari/ST/brown/lib/gcc/m68k-atariextrabrowner-elf/10.2.0/../../../../m68k-atariextrabrowner-elf/lib/m68000/libc.a(strncmp.o)
                              /Users/davidebucci/Desktop/Synchronized/Vintage/Computing/Atari/ST/brown/lib/gcc/m68k-atariextrabrowner-elf/10.2.0/../../../../m68k-atariextrabrowner-elf/lib/m68000/libc.a(getenv.o) (_strncmp)
/Users/davidebucci/Desktop/Synchronized/Vintage/Computing/Atari/ST/brown/lib/gcc/m68k-atariextrabrowner-elf/10.2.0/../../../../m68k-atariextrabrowner-elf/lib/m68000/libc.a(strncpy.o)
                              /Users/davidebucci/Desktop/Synchronized/Vintage/Computing/Atari/ST/brown/lib/gcc/m68k-atariextrabrowner-elf/10.2.0/../../../../m68k-atariextrabrowner-elf/lib/m68000/libc.a(main.o) (_strncpy)
/Users/davidebucci/Desktop/Synchronized/Vintage/Computing/Atari/ST/brown/lib/gcc/m68k-atariextrabrowner-elf/10.2.0/../../../../m68k-atariextrabrowner-elf/lib/m68000/libc.a(strrchr.o)
                              /Users/davidebucci/Desktop/Synchronized/Vintage/Computing/Atari/ST/brown/lib/gcc/m68k-atariextrabrowner-elf/10.2.0/../../../../m68k-atariextrabrowner-elf/lib/m68000/libc.a(crtinit.o) (_strrchr)
/Users/davidebucci/Desktop/Synchronized/Vintage/Computing/Atari/ST/brown/lib/gcc/m68k-atariextrabrowner-elf/10.2.0/../../../../m68k-atariextrabrowner-elf/lib/m68000/libc.a(close.o)
                              /Users/davidebucci/Desktop/Synchronized/Vintage/Computing/Atari/ST/brown/lib/gcc/m68k-atariextrabrowner-elf/10.2.0/../../../../m68k-atariextrabrowner-elf/lib/m68000/libc.a(sysd-stdio.o) (___close)
/Users/davidebucci/Desktop/Synchronized/Vintage/Computing/Atari/ST/brown/lib/gcc/m68k-atariextrabrowner-elf/10.2.0/../../../../m68k-atariextrabrowner-elf/lib/m68000/libc.a(dup2.o)
                              /Users/davidebucci/Desktop/Synchronized/Vintage/Computing/Atari/ST/brown/lib/gcc/m68k-atariextrabrowner-elf/10.2.0/../../../../m68k-atariextrabrowner-elf/lib/m68000/libc.a(sysd-stdio.o) (___dup2)
/Users/davidebucci/Desktop/Synchronized/Vintage/Computing/Atari/ST/brown/lib/gcc/m68k-atariextrabrowner-elf/10.2.0/../../../../m68k-atariextrabrowner-elf/lib/m68000/libc.a(fstat.o)
                              /Users/davidebucci/Desktop/Synchronized/Vintage/Computing/Atari/ST/brown/lib/gcc/m68k-atariextrabrowner-elf/10.2.0/../../../../m68k-atariextrabrowner-elf/lib/m68000/libc.a(main.o) (_fstat)
/Users/davidebucci/Desktop/Synchronized/Vintage/Computing/Atari/ST/brown/lib/gcc/m68k-atariextrabrowner-elf/10.2.0/../../../../m68k-atariextrabrowner-elf/lib/m68000/libc.a(getpagesize.o)
                              /Users/davidebucci/Desktop/Synchronized/Vintage/Computing/Atari/ST/brown/lib/gcc/m68k-atariextrabrowner-elf/10.2.0/../../../../m68k-atariextrabrowner-elf/lib/m68000/libc.a(malloc.o) (_getpagesize)
/Users/davidebucci/Desktop/Synchronized/Vintage/Computing/Atari/ST/brown/lib/gcc/m68k-atariextrabrowner-elf/10.2.0/../../../../m68k-atariextrabrowner-elf/lib/m68000/libc.a(lseek.o)
                              /Users/davidebucci/Desktop/Synchronized/Vintage/Computing/Atari/ST/brown/lib/gcc/m68k-atariextrabrowner-elf/10.2.0/../../../../m68k-atariextrabrowner-elf/lib/m68000/libc.a(sysd-stdio.o) (___lseek)
/Users/davidebucci/Desktop/Synchronized/Vintage/Computing/Atari/ST/brown/lib/gcc/m68k-atariextrabrowner-elf/10.2.0/../../../../m68k-atariextrabrowner-elf/lib/m68000/libc.a(open.o)
                              /Users/davidebucci/Desktop/Synchronized/Vintage/Computing/Atari/ST/brown/lib/gcc/m68k-atariextrabrowner-elf/10.2.0/../../../../m68k-atariextrabrowner-elf/lib/m68000/libc.a(sysd-stdio.o) (___open)
/Users/davidebucci/Desktop/Synchronized/Vintage/Computing/Atari/ST/brown/lib/gcc/m68k-atariextrabrowner-elf/10.2.0/../../../../m68k-atariextrabrowner-elf/lib/m68000/libc.a(read.o)
                              /Users/davidebucci/Desktop/Synchronized/Vintage/Computing/Atari/ST/brown/lib/gcc/m68k-atariextrabrowner-elf/10.2.0/../../../../m68k-atariextrabrowner-elf/lib/m68000/libc.a(sysd-stdio.o) (___read)
/Users/davidebucci/Desktop/Synchronized/Vintage/Computing/Atari/ST/brown/lib/gcc/m68k-atariextrabrowner-elf/10.2.0/../../../../m68k-atariextrabrowner-elf/lib/m68000/libc.a(sbrk.o)
                              /Users/davidebucci/Desktop/Synchronized/Vintage/Computing/Atari/ST/brown/lib/gcc/m68k-atariextrabrowner-elf/10.2.0/../../../../m68k-atariextrabrowner-elf/lib/m68000/libc.a(malloc.o) (___sbrk)
/Users/davidebucci/Desktop/Synchronized/Vintage/Computing/Atari/ST/brown/lib/gcc/m68k-atariextrabrowner-elf/10.2.0/../../../../m68k-atariextrabrowner-elf/lib/m68000/libc.a(sysctl.o)
                              /Users/davidebucci/Desktop/Synchronized/Vintage/Computing/Atari/ST/brown/lib/gcc/m68k-atariextrabrowner-elf/10.2.0/../../../../m68k-atariextrabrowner-elf/lib/m68000/libc.a(getpagesize.o) (___sysctl)
/Users/davidebucci/Desktop/Synchronized/Vintage/Computing/Atari/ST/brown/lib/gcc/m68k-atariextrabrowner-elf/10.2.0/../../../../m68k-atariextrabrowner-elf/lib/m68000/libc.a(write.o)
                              /Users/davidebucci/Desktop/Synchronized/Vintage/Computing/Atari/ST/brown/lib/gcc/m68k-atariextrabrowner-elf/10.2.0/../../../../m68k-atariextrabrowner-elf/lib/m68000/libc.a(lseek.o) (_write)
/Users/davidebucci/Desktop/Synchronized/Vintage/Computing/Atari/ST/brown/lib/gcc/m68k-atariextrabrowner-elf/10.2.0/../../../../m68k-atariextrabrowner-elf/lib/m68000/libc.a(ident_sock.o)
                              /Users/davidebucci/Desktop/Synchronized/Vintage/Computing/Atari/ST/brown//../bigbrownbuild-git/mintlib-bigbrownbuild-10.2.0/startup/crt0.o (___Ident_socketlib)
/Users/davidebucci/Desktop/Synchronized/Vintage/Computing/Atari/ST/brown/lib/gcc/m68k-atariextrabrowner-elf/10.2.0/../../../../m68k-atariextrabrowner-elf/lib/m68000/libc.a(assert.o)
                              /Users/davidebucci/Desktop/Synchronized/Vintage/Computing/Atari/ST/brown/lib/gcc/m68k-atariextrabrowner-elf/10.2.0/../../../../m68k-atariextrabrowner-elf/lib/m68000/libc.a(malloc.o) (___assert_fail)
/Users/davidebucci/Desktop/Synchronized/Vintage/Computing/Atari/ST/brown/lib/gcc/m68k-atariextrabrowner-elf/10.2.0/../../../../m68k-atariextrabrowner-elf/lib/m68000/libc.a(console.o)
                              /Users/davidebucci/Desktop/Synchronized/Vintage/Computing/Atari/ST/brown/lib/gcc/m68k-atariextrabrowner-elf/10.2.0/../../../../m68k-atariextrabrowner-elf/lib/m68000/libc.a(read.o) (__console_read_byte)
/Users/davidebucci/Desktop/Synchronized/Vintage/Computing/Atari/ST/brown/lib/gcc/m68k-atariextrabrowner-elf/10.2.0/../../../../m68k-atariextrabrowner-elf/lib/m68000/libc.a(ctype.o)
                              /Users/davidebucci/Desktop/Synchronized/Vintage/Computing/Atari/ST/brown/lib/gcc/m68k-atariextrabrowner-elf/10.2.0/../../../../m68k-atariextrabrowner-elf/lib/m68000/libc.a(unx2dos.o) (__ctype)
/Users/davidebucci/Desktop/Synchronized/Vintage/Computing/Atari/ST/brown/lib/gcc/m68k-atariextrabrowner-elf/10.2.0/../../../../m68k-atariextrabrowner-elf/lib/m68000/libc.a(do_fstat.o)
                              /Users/davidebucci/Desktop/Synchronized/Vintage/Computing/Atari/ST/brown/lib/gcc/m68k-atariextrabrowner-elf/10.2.0/../../../../m68k-atariextrabrowner-elf/lib/m68000/libc.a(stdio_init.o) (___do_fstat)
/Users/davidebucci/Desktop/Synchronized/Vintage/Computing/Atari/ST/brown/lib/gcc/m68k-atariextrabrowner-elf/10.2.0/../../../../m68k-atariextrabrowner-elf/lib/m68000/libc.a(enoent.o)
                              /Users/davidebucci/Desktop/Synchronized/Vintage/Computing/Atari/ST/brown/lib/gcc/m68k-atariextrabrowner-elf/10.2.0/../../../../m68k-atariextrabrowner-elf/lib/m68000/libc.a(open.o) (__enoent)
/Users/davidebucci/Desktop/Synchronized/Vintage/Computing/Atari/ST/brown/lib/gcc/m68k-atariextrabrowner-elf/10.2.0/../../../../m68k-atariextrabrowner-elf/lib/m68000/libc.a(getcookie.o)
                              /Users/davidebucci/Desktop/Synchronized/Vintage/Computing/Atari/ST/brown/lib/gcc/m68k-atariextrabrowner-elf/10.2.0/../../../../m68k-atariextrabrowner-elf/lib/m68000/libc.a(main.o) (_Getcookie)
/Users/davidebucci/Desktop/Synchronized/Vintage/Computing/Atari/ST/brown/lib/gcc/m68k-atariextrabrowner-elf/10.2.0/../../../../m68k-atariextrabrowner-elf/lib/m68000/libc.a(getsysvar.o)
                              /Users/davidebucci/Desktop/Synchronized/Vintage/Computing/Atari/ST/brown/lib/gcc/m68k-atariextrabrowner-elf/10.2.0/../../../../m68k-atariextrabrowner-elf/lib/m68000/libc.a(main.o) (_get_sysvar)
/Users/davidebucci/Desktop/Synchronized/Vintage/Computing/Atari/ST/brown/lib/gcc/m68k-atariextrabrowner-elf/10.2.0/../../../../m68k-atariextrabrowner-elf/lib/m68000/libc.a(inode.o)
                              /Users/davidebucci/Desktop/Synchronized/Vintage/Computing/Atari/ST/brown/lib/gcc/m68k-atariextrabrowner-elf/10.2.0/../../../../m68k-atariextrabrowner-elf/lib/m68000/libc.a(do_fstat.o) (___inode)
/Users/davidebucci/Desktop/Synchronized/Vintage/Computing/Atari/ST/brown/lib/gcc/m68k-atariextrabrowner-elf/10.2.0/../../../../m68k-atariextrabrowner-elf/lib/m68000/libc.a(isatty.o)
                              /Users/davidebucci/Desktop/Synchronized/Vintage/Computing/Atari/ST/brown/lib/gcc/m68k-atariextrabrowner-elf/10.2.0/../../../../m68k-atariextrabrowner-elf/lib/m68000/libc.a(main.o) (_isatty)
/Users/davidebucci/Desktop/Synchronized/Vintage/Computing/Atari/ST/brown/lib/gcc/m68k-atariextrabrowner-elf/10.2.0/../../../../m68k-atariextrabrowner-elf/lib/m68000/libc.a(isctty.o)
                              /Users/davidebucci/Desktop/Synchronized/Vintage/Computing/Atari/ST/brown/lib/gcc/m68k-atariextrabrowner-elf/10.2.0/../../../../m68k-atariextrabrowner-elf/lib/m68000/libc.a(read.o) (__isctty)
/Users/davidebucci/Desktop/Synchronized/Vintage/Computing/Atari/ST/brown/lib/gcc/m68k-atariextrabrowner-elf/10.2.0/../../../../m68k-atariextrabrowner-elf/lib/m68000/libc.a(libc_exit.o)
                              /Users/davidebucci/Desktop/Synchronized/Vintage/Computing/Atari/ST/brown/lib/gcc/m68k-atariextrabrowner-elf/10.2.0/../../../../m68k-atariextrabrowner-elf/lib/m68000/libc.a(exit.o) (__exit)
/Users/davidebucci/Desktop/Synchronized/Vintage/Computing/Atari/ST/brown/lib/gcc/m68k-atariextrabrowner-elf/10.2.0/../../../../m68k-atariextrabrowner-elf/lib/m68000/libc.a(quickstat.o)
                              /Users/davidebucci/Desktop/Synchronized/Vintage/Computing/Atari/ST/brown/lib/gcc/m68k-atariextrabrowner-elf/10.2.0/../../../../m68k-atariextrabrowner-elf/lib/m68000/libc.a(open.o) (___quickstat)
/Users/davidebucci/Desktop/Synchronized/Vintage/Computing/Atari/ST/brown/lib/gcc/m68k-atariextrabrowner-elf/10.2.0/../../../../m68k-atariextrabrowner-elf/lib/m68000/libc.a(toxxx.o)
                              /Users/davidebucci/Desktop/Synchronized/Vintage/Computing/Atari/ST/brown/lib/gcc/m68k-atariextrabrowner-elf/10.2.0/../../../../m68k-atariextrabrowner-elf/lib/m68000/libc.a(strtol.o) (_toupper)
/Users/davidebucci/Desktop/Synchronized/Vintage/Computing/Atari/ST/brown/lib/gcc/m68k-atariextrabrowner-elf/10.2.0/../../../../m68k-atariextrabrowner-elf/lib/m68000/libc.a(unixtime.o)
                              /Users/davidebucci/Desktop/Synchronized/Vintage/Computing/Atari/ST/brown/lib/gcc/m68k-atariextrabrowner-elf/10.2.0/../../../../m68k-atariextrabrowner-elf/lib/m68000/libc.a(do_fstat.o) (___unixtime)
/Users/davidebucci/Desktop/Synchronized/Vintage/Computing/Atari/ST/brown/lib/gcc/m68k-atariextrabrowner-elf/10.2.0/../../../../m68k-atariextrabrowner-elf/lib/m68000/libc.a(raise.o)
                              /Users/davidebucci/Desktop/Synchronized/Vintage/Computing/Atari/ST/brown/lib/gcc/m68k-atariextrabrowner-elf/10.2.0/../../../../m68k-atariextrabrowner-elf/lib/m68000/libc.a(read.o) (_raise)
/Users/davidebucci/Desktop/Synchronized/Vintage/Computing/Atari/ST/brown/lib/gcc/m68k-atariextrabrowner-elf/10.2.0/../../../../m68k-atariextrabrowner-elf/lib/m68000/libc.a(fcloseall.o)
                              /Users/davidebucci/Desktop/Synchronized/Vintage/Computing/Atari/ST/brown/lib/gcc/m68k-atariextrabrowner-elf/10.2.0/../../../../m68k-atariextrabrowner-elf/lib/m68000/libc.a(exit.o) (___fcloseall)
/Users/davidebucci/Desktop/Synchronized/Vintage/Computing/Atari/ST/brown/lib/gcc/m68k-atariextrabrowner-elf/10.2.0/../../../../m68k-atariextrabrowner-elf/lib/m68000/libc.a(fflush.o)
                              /Users/davidebucci/Desktop/Synchronized/Vintage/Computing/Atari/ST/brown/lib/gcc/m68k-atariextrabrowner-elf/10.2.0/../../../../m68k-atariextrabrowner-elf/lib/m68000/libc.a(setvbuf.o) (_fflush)
/Users/davidebucci/Desktop/Synchronized/Vintage/Computing/Atari/ST/brown/lib/gcc/m68k-atariextrabrowner-elf/10.2.0/../../../../m68k-atariextrabrowner-elf/lib/m68000/libc.a(itoa-digits.o)
                              /Users/davidebucci/Desktop/Synchronized/Vintage/Computing/Atari/ST/brown/lib/gcc/m68k-atariextrabrowner-elf/10.2.0/../../../../m68k-atariextrabrowner-elf/lib/m68000/libc.a(assert.o) (__itoa_lower_digits)
/Users/davidebucci/Desktop/Synchronized/Vintage/Computing/Atari/ST/brown/lib/gcc/m68k-atariextrabrowner-elf/10.2.0/../../../../m68k-atariextrabrowner-elf/lib/m68000/libc.a(strtoul.o)
                              /Users/davidebucci/Desktop/Synchronized/Vintage/Computing/Atari/ST/brown/lib/gcc/m68k-atariextrabrowner-elf/10.2.0/../../../../m68k-atariextrabrowner-elf/lib/m68000/libc.a(open.o) (_strtoul)
/Users/davidebucci/Desktop/Synchronized/Vintage/Computing/Atari/ST/brown/lib/gcc/m68k-atariextrabrowner-elf/10.2.0/../../../../m68k-atariextrabrowner-elf/lib/m68000/libc.a(strchr.o)
                              /Users/davidebucci/Desktop/Synchronized/Vintage/Computing/Atari/ST/brown/lib/gcc/m68k-atariextrabrowner-elf/10.2.0/../../../../m68k-atariextrabrowner-elf/lib/m68000/libc.a(quickstat.o) (_index)
/Users/davidebucci/Desktop/Synchronized/Vintage/Computing/Atari/ST/brown/lib/gcc/m68k-atariextrabrowner-elf/10.2.0/../../../../m68k-atariextrabrowner-elf/lib/m68000/libc.a(localtime.o)
                              /Users/davidebucci/Desktop/Synchronized/Vintage/Computing/Atari/ST/brown/lib/gcc/m68k-atariextrabrowner-elf/10.2.0/../../../../m68k-atariextrabrowner-elf/lib/m68000/libc.a(unixtime.o) (_mktime)
/Users/davidebucci/Desktop/Synchronized/Vintage/Computing/Atari/ST/brown/lib/gcc/m68k-atariextrabrowner-elf/10.2.0/../../../../m68k-atariextrabrowner-elf/lib/m68000/libc.a(access.o)
                              /Users/davidebucci/Desktop/Synchronized/Vintage/Computing/Atari/ST/brown/lib/gcc/m68k-atariextrabrowner-elf/10.2.0/../../../../m68k-atariextrabrowner-elf/lib/m68000/libc.a(localtime.o) (_access)
/Users/davidebucci/Desktop/Synchronized/Vintage/Computing/Atari/ST/brown/lib/gcc/m68k-atariextrabrowner-elf/10.2.0/../../../../m68k-atariextrabrowner-elf/lib/m68000/libc.a(chmod.o)
                              /Users/davidebucci/Desktop/Synchronized/Vintage/Computing/Atari/ST/brown/lib/gcc/m68k-atariextrabrowner-elf/10.2.0/../../../../m68k-atariextrabrowner-elf/lib/m68000/libc.a(open.o) (_chmod)
/Users/davidebucci/Desktop/Synchronized/Vintage/Computing/Atari/ST/brown/lib/gcc/m68k-atariextrabrowner-elf/10.2.0/../../../../m68k-atariextrabrowner-elf/lib/m68000/libc.a(getegid.o)
                              /Users/davidebucci/Desktop/Synchronized/Vintage/Computing/Atari/ST/brown/lib/gcc/m68k-atariextrabrowner-elf/10.2.0/../../../../m68k-atariextrabrowner-elf/lib/m68000/libc.a(quickstat.o) (_getegid)
/Users/davidebucci/Desktop/Synchronized/Vintage/Computing/Atari/ST/brown/lib/gcc/m68k-atariextrabrowner-elf/10.2.0/../../../../m68k-atariextrabrowner-elf/lib/m68000/libc.a(geteuid.o)
                              /Users/davidebucci/Desktop/Synchronized/Vintage/Computing/Atari/ST/brown/lib/gcc/m68k-atariextrabrowner-elf/10.2.0/../../../../m68k-atariextrabrowner-elf/lib/m68000/libc.a(open.o) (_geteuid)
/Users/davidebucci/Desktop/Synchronized/Vintage/Computing/Atari/ST/brown/lib/gcc/m68k-atariextrabrowner-elf/10.2.0/../../../../m68k-atariextrabrowner-elf/lib/m68000/libc.a(getgid.o)
                              /Users/davidebucci/Desktop/Synchronized/Vintage/Computing/Atari/ST/brown/lib/gcc/m68k-atariextrabrowner-elf/10.2.0/../../../../m68k-atariextrabrowner-elf/lib/m68000/libc.a(do_fstat.o) (_getgid)
/Users/davidebucci/Desktop/Synchronized/Vintage/Computing/Atari/ST/brown/lib/gcc/m68k-atariextrabrowner-elf/10.2.0/../../../../m68k-atariextrabrowner-elf/lib/m68000/libc.a(getgroups.o)
                              /Users/davidebucci/Desktop/Synchronized/Vintage/Computing/Atari/ST/brown/lib/gcc/m68k-atariextrabrowner-elf/10.2.0/../../../../m68k-atariextrabrowner-elf/lib/m68000/libc.a(access.o) (_getgroups)
/Users/davidebucci/Desktop/Synchronized/Vintage/Computing/Atari/ST/brown/lib/gcc/m68k-atariextrabrowner-elf/10.2.0/../../../../m68k-atariextrabrowner-elf/lib/m68000/libc.a(getpid.o)
                              /Users/davidebucci/Desktop/Synchronized/Vintage/Computing/Atari/ST/brown/lib/gcc/m68k-atariextrabrowner-elf/10.2.0/../../../../m68k-atariextrabrowner-elf/lib/m68000/libc.a(raise.o) (___getpid)
/Users/davidebucci/Desktop/Synchronized/Vintage/Computing/Atari/ST/brown/lib/gcc/m68k-atariextrabrowner-elf/10.2.0/../../../../m68k-atariextrabrowner-elf/lib/m68000/libc.a(getuid.o)
                              /Users/davidebucci/Desktop/Synchronized/Vintage/Computing/Atari/ST/brown/lib/gcc/m68k-atariextrabrowner-elf/10.2.0/../../../../m68k-atariextrabrowner-elf/lib/m68000/libc.a(do_fstat.o) (_getuid)
/Users/davidebucci/Desktop/Synchronized/Vintage/Computing/Atari/ST/brown/lib/gcc/m68k-atariextrabrowner-elf/10.2.0/../../../../m68k-atariextrabrowner-elf/lib/m68000/libc.a(ioctl.o)
                              /Users/davidebucci/Desktop/Synchronized/Vintage/Computing/Atari/ST/brown/lib/gcc/m68k-atariextrabrowner-elf/10.2.0/../../../../m68k-atariextrabrowner-elf/lib/m68000/libc.a(open.o) (_ioctl)
/Users/davidebucci/Desktop/Synchronized/Vintage/Computing/Atari/ST/brown/lib/gcc/m68k-atariextrabrowner-elf/10.2.0/../../../../m68k-atariextrabrowner-elf/lib/m68000/libc.a(kill.o)
                              /Users/davidebucci/Desktop/Synchronized/Vintage/Computing/Atari/ST/brown/lib/gcc/m68k-atariextrabrowner-elf/10.2.0/../../../../m68k-atariextrabrowner-elf/lib/m68000/libc.a(raise.o) (___kill)
/Users/davidebucci/Desktop/Synchronized/Vintage/Computing/Atari/ST/brown/lib/gcc/m68k-atariextrabrowner-elf/10.2.0/../../../../m68k-atariextrabrowner-elf/lib/m68000/libc.a(time.o)
                              /Users/davidebucci/Desktop/Synchronized/Vintage/Computing/Atari/ST/brown/lib/gcc/m68k-atariextrabrowner-elf/10.2.0/../../../../m68k-atariextrabrowner-elf/lib/m68000/libc.a(do_fstat.o) (_time)
/Users/davidebucci/Desktop/Synchronized/Vintage/Computing/Atari/ST/brown/lib/gcc/m68k-atariextrabrowner-elf/10.2.0/../../../../m68k-atariextrabrowner-elf/lib/m68000/libc.a(abort.o)
                              /Users/davidebucci/Desktop/Synchronized/Vintage/Computing/Atari/ST/brown/lib/gcc/m68k-atariextrabrowner-elf/10.2.0/../../../../m68k-atariextrabrowner-elf/lib/m68000/libc.a(assert.o) (_abort)
/Users/davidebucci/Desktop/Synchronized/Vintage/Computing/Atari/ST/brown/lib/gcc/m68k-atariextrabrowner-elf/10.2.0/../../../../m68k-atariextrabrowner-elf/lib/m68000/libc.a(alglobal.o)
                              /Users/davidebucci/Desktop/Synchronized/Vintage/Computing/Atari/ST/brown/lib/gcc/m68k-atariextrabrowner-elf/10.2.0/../../../../m68k-atariextrabrowner-elf/lib/m68000/libc.a(ioctl.o) (___funcs)
/Users/davidebucci/Desktop/Synchronized/Vintage/Computing/Atari/ST/brown/lib/gcc/m68k-atariextrabrowner-elf/10.2.0/../../../../m68k-atariextrabrowner-elf/lib/m68000/libc.a(calloc.o)
                              /Users/davidebucci/Desktop/Synchronized/Vintage/Computing/Atari/ST/brown/lib/gcc/m68k-atariextrabrowner-elf/10.2.0/../../../../m68k-atariextrabrowner-elf/lib/m68000/libc.a(localtime.o) (_calloc)
/Users/davidebucci/Desktop/Synchronized/Vintage/Computing/Atari/ST/brown/lib/gcc/m68k-atariextrabrowner-elf/10.2.0/../../../../m68k-atariextrabrowner-elf/lib/m68000/libc.a(do_stat.o)
                              /Users/davidebucci/Desktop/Synchronized/Vintage/Computing/Atari/ST/brown/lib/gcc/m68k-atariextrabrowner-elf/10.2.0/../../../../m68k-atariextrabrowner-elf/lib/m68000/libc.a(enoent.o) (___sys_stat)
/Users/davidebucci/Desktop/Synchronized/Vintage/Computing/Atari/ST/brown/lib/gcc/m68k-atariextrabrowner-elf/10.2.0/../../../../m68k-atariextrabrowner-elf/lib/m68000/libc.a(uidgid.o)
                              /Users/davidebucci/Desktop/Synchronized/Vintage/Computing/Atari/ST/brown/lib/gcc/m68k-atariextrabrowner-elf/10.2.0/../../../../m68k-atariextrabrowner-elf/lib/m68000/libc.a(getgid.o) (___gid)
/Users/davidebucci/Desktop/Synchronized/Vintage/Computing/Atari/ST/brown/lib/gcc/m68k-atariextrabrowner-elf/10.2.0/../../../../m68k-atariextrabrowner-elf/lib/m68000/libc.a(getpwuid.o)
                              /Users/davidebucci/Desktop/Synchronized/Vintage/Computing/Atari/ST/brown/lib/gcc/m68k-atariextrabrowner-elf/10.2.0/../../../../m68k-atariextrabrowner-elf/lib/m68000/libc.a(getgroups.o) (_getpwuid)
/Users/davidebucci/Desktop/Synchronized/Vintage/Computing/Atari/ST/brown/lib/gcc/m68k-atariextrabrowner-elf/10.2.0/../../../../m68k-atariextrabrowner-elf/lib/m68000/libc.a(getpwuid_r.o)
                              /Users/davidebucci/Desktop/Synchronized/Vintage/Computing/Atari/ST/brown/lib/gcc/m68k-atariextrabrowner-elf/10.2.0/../../../../m68k-atariextrabrowner-elf/lib/m68000/libc.a(getpwuid.o) (___getpwuid_r)
/Users/davidebucci/Desktop/Synchronized/Vintage/Computing/Atari/ST/brown/lib/gcc/m68k-atariextrabrowner-elf/10.2.0/../../../../m68k-atariextrabrowner-elf/lib/m68000/libc.a(grp.o)
                              /Users/davidebucci/Desktop/Synchronized/Vintage/Computing/Atari/ST/brown/lib/gcc/m68k-atariextrabrowner-elf/10.2.0/../../../../m68k-atariextrabrowner-elf/lib/m68000/libc.a(getgroups.o) (_setgrent)
/Users/davidebucci/Desktop/Synchronized/Vintage/Computing/Atari/ST/brown/lib/gcc/m68k-atariextrabrowner-elf/10.2.0/../../../../m68k-atariextrabrowner-elf/lib/m68000/libc.a(rewind.o)
                              /Users/davidebucci/Desktop/Synchronized/Vintage/Computing/Atari/ST/brown/lib/gcc/m68k-atariextrabrowner-elf/10.2.0/../../../../m68k-atariextrabrowner-elf/lib/m68000/libc.a(grp.o) (_rewind)
/Users/davidebucci/Desktop/Synchronized/Vintage/Computing/Atari/ST/brown/lib/gcc/m68k-atariextrabrowner-elf/10.2.0/../../../../m68k-atariextrabrowner-elf/lib/m68000/libc.a(asctime.o)
                              /Users/davidebucci/Desktop/Synchronized/Vintage/Computing/Atari/ST/brown/lib/gcc/m68k-atariextrabrowner-elf/10.2.0/../../../../m68k-atariextrabrowner-elf/lib/m68000/libc.a(localtime.o) (_asctime_r)
/Users/davidebucci/Desktop/Synchronized/Vintage/Computing/Atari/ST/brown/lib/gcc/m68k-atariextrabrowner-elf/10.2.0/../../../../m68k-atariextrabrowner-elf/lib/m68000/libc.a(strftime.o)
                              /Users/davidebucci/Desktop/Synchronized/Vintage/Computing/Atari/ST/brown/lib/gcc/m68k-atariextrabrowner-elf/10.2.0/../../../../m68k-atariextrabrowner-elf/lib/m68000/libc.a(asctime.o) (_strftime)
/Users/davidebucci/Desktop/Synchronized/Vintage/Computing/Atari/ST/brown/lib/gcc/m68k-atariextrabrowner-elf/10.2.0/../../../../m68k-atariextrabrowner-elf/lib/m68000/libc.a(gettimeofday.o)
                              /Users/davidebucci/Desktop/Synchronized/Vintage/Computing/Atari/ST/brown/lib/gcc/m68k-atariextrabrowner-elf/10.2.0/../../../../m68k-atariextrabrowner-elf/lib/m68000/libc.a(time.o) (___gettimeofday)
/Users/davidebucci/Desktop/Synchronized/Vintage/Computing/Atari/ST/brown/lib/gcc/m68k-atariextrabrowner-elf/10.2.0/../../../../m68k-atariextrabrowner-elf/lib/m68000/libc.a(setlocale.o)
                              /Users/davidebucci/Desktop/Synchronized/Vintage/Computing/Atari/ST/brown/lib/gcc/m68k-atariextrabrowner-elf/10.2.0/../../../../m68k-atariextrabrowner-elf/lib/m68000/libc.a(strftime.o) (_setlocale)
/Users/davidebucci/Desktop/Synchronized/Vintage/Computing/Atari/ST/brown/lib/gcc/m68k-atariextrabrowner-elf/10.2.0/../../../../m68k-atariextrabrowner-elf/lib/m68000/libc.a(fgetpwent_r.o)
                              /Users/davidebucci/Desktop/Synchronized/Vintage/Computing/Atari/ST/brown/lib/gcc/m68k-atariextrabrowner-elf/10.2.0/../../../../m68k-atariextrabrowner-elf/lib/m68000/libc.a(getpwuid_r.o) (_fgetpwent_r)
/Users/davidebucci/Desktop/Synchronized/Vintage/Computing/Atari/ST/brown/lib/gcc/m68k-atariextrabrowner-elf/10.2.0/../../../../m68k-atariextrabrowner-elf/lib/m68000/libc.a(clearerr.o)
                              /Users/davidebucci/Desktop/Synchronized/Vintage/Computing/Atari/ST/brown/lib/gcc/m68k-atariextrabrowner-elf/10.2.0/../../../../m68k-atariextrabrowner-elf/lib/m68000/libc.a(rewind.o) (_clearerr)
/Users/davidebucci/Desktop/Synchronized/Vintage/Computing/Atari/ST/brown/lib/gcc/m68k-atariextrabrowner-elf/10.2.0/../../../../m68k-atariextrabrowner-elf/lib/m68000/libc.a(fprintf.o)
                              /Users/davidebucci/Desktop/Synchronized/Vintage/Computing/Atari/ST/brown/lib/gcc/m68k-atariextrabrowner-elf/10.2.0/../../../../m68k-atariextrabrowner-elf/lib/m68000/libc.a(strftime.o) (_fprintf)
/Users/davidebucci/Desktop/Synchronized/Vintage/Computing/Atari/ST/brown/lib/gcc/m68k-atariextrabrowner-elf/10.2.0/../../../../m68k-atariextrabrowner-elf/lib/m68000/libc.a(fputc.o)
                              /Users/davidebucci/Desktop/Synchronized/Vintage/Computing/Atari/ST/brown/lib/gcc/m68k-atariextrabrowner-elf/10.2.0/../../../../m68k-atariextrabrowner-elf/lib/m68000/libc.a(strftime.o) (_fputc)
/Users/davidebucci/Desktop/Synchronized/Vintage/Computing/Atari/ST/brown/lib/gcc/m68k-atariextrabrowner-elf/10.2.0/../../../../m68k-atariextrabrowner-elf/lib/m68000/libc.a(fseek.o)
                              /Users/davidebucci/Desktop/Synchronized/Vintage/Computing/Atari/ST/brown/lib/gcc/m68k-atariextrabrowner-elf/10.2.0/../../../../m68k-atariextrabrowner-elf/lib/m68000/libc.a(rewind.o) (_fseek)
/Users/davidebucci/Desktop/Synchronized/Vintage/Computing/Atari/ST/brown/lib/gcc/m68k-atariextrabrowner-elf/10.2.0/../../../../m68k-atariextrabrowner-elf/lib/m68000/libc.a(fwrite.o)
                              /Users/davidebucci/Desktop/Synchronized/Vintage/Computing/Atari/ST/brown/lib/gcc/m68k-atariextrabrowner-elf/10.2.0/../../../../m68k-atariextrabrowner-elf/lib/m68000/libc.a(strftime.o) (_fwrite)
/Users/davidebucci/Desktop/Synchronized/Vintage/Computing/Atari/ST/brown/lib/gcc/m68k-atariextrabrowner-elf/10.2.0/../../../../m68k-atariextrabrowner-elf/lib/m68000/libc.a(sprintf.o)
                              /Users/davidebucci/Desktop/Synchronized/Vintage/Computing/Atari/ST/brown/lib/gcc/m68k-atariextrabrowner-elf/10.2.0/../../../../m68k-atariextrabrowner-elf/lib/m68000/libc.a(asctime.o) (_sprintf)
/Users/davidebucci/Desktop/Synchronized/Vintage/Computing/Atari/ST/brown/lib/gcc/m68k-atariextrabrowner-elf/10.2.0/../../../../m68k-atariextrabrowner-elf/lib/m68000/libc.a(ungetc.o)
                              /Users/davidebucci/Desktop/Synchronized/Vintage/Computing/Atari/ST/brown/lib/gcc/m68k-atariextrabrowner-elf/10.2.0/../../../../m68k-atariextrabrowner-elf/lib/m68000/libc.a(fgetpwent_r.o) (_ungetc)
/Users/davidebucci/Desktop/Synchronized/Vintage/Computing/Atari/ST/brown/lib/gcc/m68k-atariextrabrowner-elf/10.2.0/../../../../m68k-atariextrabrowner-elf/lib/m68000/libc.a(vfprintf.o)
                              /Users/davidebucci/Desktop/Synchronized/Vintage/Computing/Atari/ST/brown/lib/gcc/m68k-atariextrabrowner-elf/10.2.0/../../../../m68k-atariextrabrowner-elf/lib/m68000/libc.a(fprintf.o) (_vfprintf)
/Users/davidebucci/Desktop/Synchronized/Vintage/Computing/Atari/ST/brown/lib/gcc/m68k-atariextrabrowner-elf/10.2.0/../../../../m68k-atariextrabrowner-elf/lib/m68000/libc.a(vsprintf.o)
                              /Users/davidebucci/Desktop/Synchronized/Vintage/Computing/Atari/ST/brown/lib/gcc/m68k-atariextrabrowner-elf/10.2.0/../../../../m68k-atariextrabrowner-elf/lib/m68000/libc.a(sprintf.o) (_vsprintf)
/Users/davidebucci/Desktop/Synchronized/Vintage/Computing/Atari/ST/brown/lib/gcc/m68k-atariextrabrowner-elf/10.2.0/../../../../m68k-atariextrabrowner-elf/lib/m68000/libc.a(memchr.o)
                              /Users/davidebucci/Desktop/Synchronized/Vintage/Computing/Atari/ST/brown/lib/gcc/m68k-atariextrabrowner-elf/10.2.0/../../../../m68k-atariextrabrowner-elf/lib/m68000/libc.a(fwrite.o) (_memchr)
/Users/davidebucci/Desktop/Synchronized/Vintage/Computing/Atari/ST/brown/lib/gcc/m68k-atariextrabrowner-elf/10.2.0/../../../../m68k-atariextrabrowner-elf/lib/m68000/libc.a(mempcpy.o)
                              /Users/davidebucci/Desktop/Synchronized/Vintage/Computing/Atari/ST/brown/lib/gcc/m68k-atariextrabrowner-elf/10.2.0/../../../../m68k-atariextrabrowner-elf/lib/m68000/libc.a(vfprintf.o) (___mempcpy)
/Users/davidebucci/Desktop/Synchronized/Vintage/Computing/Atari/ST/brown/lib/gcc/m68k-atariextrabrowner-elf/10.2.0/../../../../m68k-atariextrabrowner-elf/lib/m68000/libc.a(strcpy.o)
                              /Users/davidebucci/Desktop/Synchronized/Vintage/Computing/Atari/ST/brown/lib/gcc/m68k-atariextrabrowner-elf/10.2.0/../../../../m68k-atariextrabrowner-elf/lib/m68000/libc.a(strftime.o) (_strcpy)
/Users/davidebucci/Desktop/Synchronized/Vintage/Computing/Atari/ST/brown/lib/gcc/m68k-atariextrabrowner-elf/10.2.0/../../../../m68k-atariextrabrowner-elf/lib/m68000/libc.a(strerror_r.o)
                              /Users/davidebucci/Desktop/Synchronized/Vintage/Computing/Atari/ST/brown/lib/gcc/m68k-atariextrabrowner-elf/10.2.0/../../../../m68k-atariextrabrowner-elf/lib/m68000/libc.a(vfprintf.o) (___strerror_r)
/Users/davidebucci/Desktop/Synchronized/Vintage/Computing/Atari/ST/brown/lib/gcc/m68k-atariextrabrowner-elf/10.2.0/../../../../m68k-atariextrabrowner-elf/lib/m68000/libc.a(strnlen.o)
                              /Users/davidebucci/Desktop/Synchronized/Vintage/Computing/Atari/ST/brown/lib/gcc/m68k-atariextrabrowner-elf/10.2.0/../../../../m68k-atariextrabrowner-elf/lib/m68000/libc.a(vfprintf.o) (_strnlen)
/Users/davidebucci/Desktop/Synchronized/Vintage/Computing/Atari/ST/brown/lib/gcc/m68k-atariextrabrowner-elf/10.2.0/../../../../m68k-atariextrabrowner-elf/lib/m68000/libc.a(_itoa.o)
                              /Users/davidebucci/Desktop/Synchronized/Vintage/Computing/Atari/ST/brown/lib/gcc/m68k-atariextrabrowner-elf/10.2.0/../../../../m68k-atariextrabrowner-elf/lib/m68000/libc.a(vfprintf.o) (__itoa)
/Users/davidebucci/Desktop/Synchronized/Vintage/Computing/Atari/ST/brown/lib/gcc/m68k-atariextrabrowner-elf/10.2.0/../../../../m68k-atariextrabrowner-elf/lib/m68000/libc.a(lockfile.o)
                              /Users/davidebucci/Desktop/Synchronized/Vintage/Computing/Atari/ST/brown/lib/gcc/m68k-atariextrabrowner-elf/10.2.0/../../../../m68k-atariextrabrowner-elf/lib/m68000/libc.a(vfprintf.o) (___flockfile)
/Users/davidebucci/Desktop/Synchronized/Vintage/Computing/Atari/ST/brown/lib/gcc/m68k-atariextrabrowner-elf/10.2.0/../../../../m68k-atariextrabrowner-elf/lib/m68000/libc.a(printf_fp.o)
                              /Users/davidebucci/Desktop/Synchronized/Vintage/Computing/Atari/ST/brown/lib/gcc/m68k-atariextrabrowner-elf/10.2.0/../../../../m68k-atariextrabrowner-elf/lib/m68000/libc.a(vfprintf.o) (___printf_fp)
/Users/davidebucci/Desktop/Synchronized/Vintage/Computing/Atari/ST/brown/lib/gcc/m68k-atariextrabrowner-elf/10.2.0/../../../../m68k-atariextrabrowner-elf/lib/m68000/libc.a(printf_fphex.o)
                              /Users/davidebucci/Desktop/Synchronized/Vintage/Computing/Atari/ST/brown/lib/gcc/m68k-atariextrabrowner-elf/10.2.0/../../../../m68k-atariextrabrowner-elf/lib/m68000/libc.a(vfprintf.o) (___printf_fphex)
/Users/davidebucci/Desktop/Synchronized/Vintage/Computing/Atari/ST/brown/lib/gcc/m68k-atariextrabrowner-elf/10.2.0/../../../../m68k-atariextrabrowner-elf/lib/m68000/libc.a(reg-printf.o)
                              /Users/davidebucci/Desktop/Synchronized/Vintage/Computing/Atari/ST/brown/lib/gcc/m68k-atariextrabrowner-elf/10.2.0/../../../../m68k-atariextrabrowner-elf/lib/m68000/libc.a(vfprintf.o) (___printf_function_table)
/Users/davidebucci/Desktop/Synchronized/Vintage/Computing/Atari/ST/brown/lib/gcc/m68k-atariextrabrowner-elf/10.2.0/../../../../m68k-atariextrabrowner-elf/lib/m68000/libc.a(fpioconst.o)
                              /Users/davidebucci/Desktop/Synchronized/Vintage/Computing/Atari/ST/brown/lib/gcc/m68k-atariextrabrowner-elf/10.2.0/../../../../m68k-atariextrabrowner-elf/lib/m68000/libc.a(printf_fp.o) (__fpioconst_pow10)
/Users/davidebucci/Desktop/Synchronized/Vintage/Computing/Atari/ST/brown/lib/gcc/m68k-atariextrabrowner-elf/10.2.0/../../../../m68k-atariextrabrowner-elf/lib/m68000/libc.a(strerror.o)
                              /Users/davidebucci/Desktop/Synchronized/Vintage/Computing/Atari/ST/brown/lib/gcc/m68k-atariextrabrowner-elf/10.2.0/../../../../m68k-atariextrabrowner-elf/lib/m68000/libc.a(strerror_r.o) (_strerror)
/Users/davidebucci/Desktop/Synchronized/Vintage/Computing/Atari/ST/brown/lib/gcc/m68k-atariextrabrowner-elf/10.2.0/../../../../m68k-atariextrabrowner-elf/lib/m68000/libc.a(dbl2mpn.o)
                              /Users/davidebucci/Desktop/Synchronized/Vintage/Computing/Atari/ST/brown/lib/gcc/m68k-atariextrabrowner-elf/10.2.0/../../../../m68k-atariextrabrowner-elf/lib/m68000/libc.a(printf_fp.o) (___mpn_extract_double)
/Users/davidebucci/Desktop/Synchronized/Vintage/Computing/Atari/ST/brown/lib/gcc/m68k-atariextrabrowner-elf/10.2.0/../../../../m68k-atariextrabrowner-elf/lib/m68000/libc.a(ldbl2mpn.o)
                              /Users/davidebucci/Desktop/Synchronized/Vintage/Computing/Atari/ST/brown/lib/gcc/m68k-atariextrabrowner-elf/10.2.0/../../../../m68k-atariextrabrowner-elf/lib/m68000/libc.a(printf_fp.o) (___mpn_extract_long_double)
/Users/davidebucci/Desktop/Synchronized/Vintage/Computing/Atari/ST/brown/lib/gcc/m68k-atariextrabrowner-elf/10.2.0/../../../../m68k-atariextrabrowner-elf/lib/m68000/libc.a(mp_clz_tab.o)
                              /Users/davidebucci/Desktop/Synchronized/Vintage/Computing/Atari/ST/brown/lib/gcc/m68k-atariextrabrowner-elf/10.2.0/../../../../m68k-atariextrabrowner-elf/lib/m68000/libc.a(printf_fp.o) (___clz_tab)
/Users/davidebucci/Desktop/Synchronized/Vintage/Computing/Atari/ST/brown/lib/gcc/m68k-atariextrabrowner-elf/10.2.0/../../../../m68k-atariextrabrowner-elf/lib/m68000/libc.a(mpn-cmp.o)
                              /Users/davidebucci/Desktop/Synchronized/Vintage/Computing/Atari/ST/brown/lib/gcc/m68k-atariextrabrowner-elf/10.2.0/../../../../m68k-atariextrabrowner-elf/lib/m68000/libc.a(printf_fp.o) (___mpn_cmp)
/Users/davidebucci/Desktop/Synchronized/Vintage/Computing/Atari/ST/brown/lib/gcc/m68k-atariextrabrowner-elf/10.2.0/../../../../m68k-atariextrabrowner-elf/lib/m68000/libc.a(mpn-divrem.o)
                              /Users/davidebucci/Desktop/Synchronized/Vintage/Computing/Atari/ST/brown/lib/gcc/m68k-atariextrabrowner-elf/10.2.0/../../../../m68k-atariextrabrowner-elf/lib/m68000/libc.a(printf_fp.o) (___mpn_divrem)
/Users/davidebucci/Desktop/Synchronized/Vintage/Computing/Atari/ST/brown/lib/gcc/m68k-atariextrabrowner-elf/10.2.0/../../../../m68k-atariextrabrowner-elf/lib/m68000/libc.a(mpn-lshift.o)
                              /Users/davidebucci/Desktop/Synchronized/Vintage/Computing/Atari/ST/brown/lib/gcc/m68k-atariextrabrowner-elf/10.2.0/../../../../m68k-atariextrabrowner-elf/lib/m68000/libc.a(printf_fp.o) (___mpn_lshift)
/Users/davidebucci/Desktop/Synchronized/Vintage/Computing/Atari/ST/brown/lib/gcc/m68k-atariextrabrowner-elf/10.2.0/../../../../m68k-atariextrabrowner-elf/lib/m68000/libc.a(mpn-mul.o)
                              /Users/davidebucci/Desktop/Synchronized/Vintage/Computing/Atari/ST/brown/lib/gcc/m68k-atariextrabrowner-elf/10.2.0/../../../../m68k-atariextrabrowner-elf/lib/m68000/libc.a(printf_fp.o) (___mpn_mul)
/Users/davidebucci/Desktop/Synchronized/Vintage/Computing/Atari/ST/brown/lib/gcc/m68k-atariextrabrowner-elf/10.2.0/../../../../m68k-atariextrabrowner-elf/lib/m68000/libc.a(mpn-mul_1.o)
                              /Users/davidebucci/Desktop/Synchronized/Vintage/Computing/Atari/ST/brown/lib/gcc/m68k-atariextrabrowner-elf/10.2.0/../../../../m68k-atariextrabrowner-elf/lib/m68000/libc.a(printf_fp.o) (___mpn_mul_1)
/Users/davidebucci/Desktop/Synchronized/Vintage/Computing/Atari/ST/brown/lib/gcc/m68k-atariextrabrowner-elf/10.2.0/../../../../m68k-atariextrabrowner-elf/lib/m68000/libc.a(mpn-mul_n.o)
                              /Users/davidebucci/Desktop/Synchronized/Vintage/Computing/Atari/ST/brown/lib/gcc/m68k-atariextrabrowner-elf/10.2.0/../../../../m68k-atariextrabrowner-elf/lib/m68000/libc.a(mpn-mul.o) (___mpn_impn_mul_n)
/Users/davidebucci/Desktop/Synchronized/Vintage/Computing/Atari/ST/brown/lib/gcc/m68k-atariextrabrowner-elf/10.2.0/../../../../m68k-atariextrabrowner-elf/lib/m68000/libc.a(mpn-rshift.o)
                              /Users/davidebucci/Desktop/Synchronized/Vintage/Computing/Atari/ST/brown/lib/gcc/m68k-atariextrabrowner-elf/10.2.0/../../../../m68k-atariextrabrowner-elf/lib/m68000/libc.a(printf_fp.o) (___mpn_rshift)
/Users/davidebucci/Desktop/Synchronized/Vintage/Computing/Atari/ST/brown/lib/gcc/m68k-atariextrabrowner-elf/10.2.0/../../../../m68k-atariextrabrowner-elf/lib/m68000/libc.a(mpn-sub_n.o)
                              /Users/davidebucci/Desktop/Synchronized/Vintage/Computing/Atari/ST/brown/lib/gcc/m68k-atariextrabrowner-elf/10.2.0/../../../../m68k-atariextrabrowner-elf/lib/m68000/libc.a(mpn-divrem.o) (___mpn_sub_n)
/Users/davidebucci/Desktop/Synchronized/Vintage/Computing/Atari/ST/brown/lib/gcc/m68k-atariextrabrowner-elf/10.2.0/../../../../m68k-atariextrabrowner-elf/lib/m68000/libc.a(mpn-submul_1.o)
                              /Users/davidebucci/Desktop/Synchronized/Vintage/Computing/Atari/ST/brown/lib/gcc/m68k-atariextrabrowner-elf/10.2.0/../../../../m68k-atariextrabrowner-elf/lib/m68000/libc.a(mpn-divrem.o) (___mpn_submul_1)
/Users/davidebucci/Desktop/Synchronized/Vintage/Computing/Atari/ST/brown/lib/gcc/m68k-atariextrabrowner-elf/10.2.0/../../../../m68k-atariextrabrowner-elf/lib/m68000/libc.a(s_isinf.o)
                              /Users/davidebucci/Desktop/Synchronized/Vintage/Computing/Atari/ST/brown/lib/gcc/m68k-atariextrabrowner-elf/10.2.0/../../../../m68k-atariextrabrowner-elf/lib/m68000/libc.a(printf_fp.o) (___isinf)
/Users/davidebucci/Desktop/Synchronized/Vintage/Computing/Atari/ST/brown/lib/gcc/m68k-atariextrabrowner-elf/10.2.0/../../../../m68k-atariextrabrowner-elf/lib/m68000/libc.a(s_isinfl.o)
                              /Users/davidebucci/Desktop/Synchronized/Vintage/Computing/Atari/ST/brown/lib/gcc/m68k-atariextrabrowner-elf/10.2.0/../../../../m68k-atariextrabrowner-elf/lib/m68000/libc.a(printf_fp.o) (___isinfl)
/Users/davidebucci/Desktop/Synchronized/Vintage/Computing/Atari/ST/brown/lib/gcc/m68k-atariextrabrowner-elf/10.2.0/../../../../m68k-atariextrabrowner-elf/lib/m68000/libc.a(s_isnan.o)
                              /Users/davidebucci/Desktop/Synchronized/Vintage/Computing/Atari/ST/brown/lib/gcc/m68k-atariextrabrowner-elf/10.2.0/../../../../m68k-atariextrabrowner-elf/lib/m68000/libc.a(printf_fp.o) (___isnan)
/Users/davidebucci/Desktop/Synchronized/Vintage/Computing/Atari/ST/brown/lib/gcc/m68k-atariextrabrowner-elf/10.2.0/../../../../m68k-atariextrabrowner-elf/lib/m68000/libc.a(s_isnanl.o)
                              /Users/davidebucci/Desktop/Synchronized/Vintage/Computing/Atari/ST/brown/lib/gcc/m68k-atariextrabrowner-elf/10.2.0/../../../../m68k-atariextrabrowner-elf/lib/m68000/libc.a(printf_fp.o) (___isnanl)
/Users/davidebucci/Desktop/Synchronized/Vintage/Computing/Atari/ST/brown/lib/gcc/m68k-atariextrabrowner-elf/10.2.0/../../../../m68k-atariextrabrowner-elf/lib/m68000/libc.a(s_signbit.o)
                              /Users/davidebucci/Desktop/Synchronized/Vintage/Computing/Atari/ST/brown/lib/gcc/m68k-atariextrabrowner-elf/10.2.0/../../../../m68k-atariextrabrowner-elf/lib/m68000/libc.a(printf_fphex.o) (___signbit)
/Users/davidebucci/Desktop/Synchronized/Vintage/Computing/Atari/ST/brown/lib/gcc/m68k-atariextrabrowner-elf/10.2.0/../../../../m68k-atariextrabrowner-elf/lib/m68000/libc.a(s_signbitl.o)
                              /Users/davidebucci/Desktop/Synchronized/Vintage/Computing/Atari/ST/brown/lib/gcc/m68k-atariextrabrowner-elf/10.2.0/../../../../m68k-atariextrabrowner-elf/lib/m68000/libc.a(printf_fphex.o) (___signbitl)
/Users/davidebucci/Desktop/Synchronized/Vintage/Computing/Atari/ST/brown/lib/gcc/m68k-atariextrabrowner-elf/10.2.0/../../../../m68k-atariextrabrowner-elf/lib/m68000/libc.a(snprintf.o)
                              /Users/davidebucci/Desktop/Synchronized/Vintage/Computing/Atari/ST/brown/lib/gcc/m68k-atariextrabrowner-elf/10.2.0/../../../../m68k-atariextrabrowner-elf/lib/m68000/libc.a(strerror.o) (_snprintf)
/Users/davidebucci/Desktop/Synchronized/Vintage/Computing/Atari/ST/brown/lib/gcc/m68k-atariextrabrowner-elf/10.2.0/../../../../m68k-atariextrabrowner-elf/lib/m68000/libc.a(vsnprintf.o)
                              /Users/davidebucci/Desktop/Synchronized/Vintage/Computing/Atari/ST/brown/lib/gcc/m68k-atariextrabrowner-elf/10.2.0/../../../../m68k-atariextrabrowner-elf/lib/m68000/libc.a(snprintf.o) (___vsnprintf)
/Users/davidebucci/Desktop/Synchronized/Vintage/Computing/Atari/ST/brown/lib/gcc/m68k-atariextrabrowner-elf/10.2.0/../../../../m68k-atariextrabrowner-elf/lib/m68000/libc.a(mpn-add_n.o)
                              /Users/davidebucci/Desktop/Synchronized/Vintage/Computing/Atari/ST/brown/lib/gcc/m68k-atariextrabrowner-elf/10.2.0/../../../../m68k-atariextrabrowner-elf/lib/m68000/libc.a(mpn-divrem.o) (___mpn_add_n)
/Users/davidebucci/Desktop/Synchronized/Vintage/Computing/Atari/ST/brown/lib/gcc/m68k-atariextrabrowner-elf/10.2.0/../../../../m68k-atariextrabrowner-elf/lib/m68000/libc.a(mpn-addmul_1.o)
                              /Users/davidebucci/Desktop/Synchronized/Vintage/Computing/Atari/ST/brown/lib/gcc/m68k-atariextrabrowner-elf/10.2.0/../../../../m68k-atariextrabrowner-elf/lib/m68000/libc.a(mpn-mul.o) (___mpn_addmul_1)
/Users/davidebucci/Desktop/Synchronized/Vintage/Computing/Atari/ST/brown//lib/gcc/m68k-atariextrabrowner-elf/10.2.0/m68000/libgcc.a(_mulsi3.o)
                              /Users/davidebucci/Desktop/Synchronized/Vintage/Computing/Atari/ST/brown/lib/gcc/m68k-atariextrabrowner-elf/10.2.0/../../../../m68k-atariextrabrowner-elf/lib/m68000/libc.a(rand.o) (___mulsi3)
/Users/davidebucci/Desktop/Synchronized/Vintage/Computing/Atari/ST/brown//lib/gcc/m68k-atariextrabrowner-elf/10.2.0/m68000/libgcc.a(_udivsi3.o)
                              /Users/davidebucci/Desktop/Synchronized/Vintage/Computing/Atari/ST/brown/lib/gcc/m68k-atariextrabrowner-elf/10.2.0/../../../../m68k-atariextrabrowner-elf/lib/m68000/libc.a(strtol.o) (___udivsi3)
/Users/davidebucci/Desktop/Synchronized/Vintage/Computing/Atari/ST/brown//lib/gcc/m68k-atariextrabrowner-elf/10.2.0/m68000/libgcc.a(_divsi3.o)
                              /Users/davidebucci/Desktop/Synchronized/Vintage/Computing/Atari/ST/brown/lib/gcc/m68k-atariextrabrowner-elf/10.2.0/../../../../m68k-atariextrabrowner-elf/lib/m68000/libc.a(rand.o) (___divsi3)
/Users/davidebucci/Desktop/Synchronized/Vintage/Computing/Atari/ST/brown//lib/gcc/m68k-atariextrabrowner-elf/10.2.0/m68000/libgcc.a(_umodsi3.o)
                              /Users/davidebucci/Desktop/Synchronized/Vintage/Computing/Atari/ST/brown/lib/gcc/m68k-atariextrabrowner-elf/10.2.0/../../../../m68k-atariextrabrowner-elf/lib/m68000/libc.a(internals.o) (___umodsi3)
/Users/davidebucci/Desktop/Synchronized/Vintage/Computing/Atari/ST/brown//lib/gcc/m68k-atariextrabrowner-elf/10.2.0/m68000/libgcc.a(_modsi3.o)
                              /Users/davidebucci/Desktop/Synchronized/Vintage/Computing/Atari/ST/brown/lib/gcc/m68k-atariextrabrowner-elf/10.2.0/../../../../m68k-atariextrabrowner-elf/lib/m68000/libc.a(rand.o) (___modsi3)
/Users/davidebucci/Desktop/Synchronized/Vintage/Computing/Atari/ST/brown//lib/gcc/m68k-atariextrabrowner-elf/10.2.0/m68000/libgcc.a(_double.o)
                              /Users/davidebucci/Desktop/Synchronized/Vintage/Computing/Atari/ST/brown/lib/gcc/m68k-atariextrabrowner-elf/10.2.0/../../../../m68k-atariextrabrowner-elf/lib/m68000/libc.a(localtime.o) (___adddf3)
/Users/davidebucci/Desktop/Synchronized/Vintage/Computing/Atari/ST/brown//lib/gcc/m68k-atariextrabrowner-elf/10.2.0/m68000/libgcc.a(_floatex.o)
                              /Users/davidebucci/Desktop/Synchronized/Vintage/Computing/Atari/ST/brown//lib/gcc/m68k-atariextrabrowner-elf/10.2.0/m68000/libgcc.a(_double.o) (__fpCCR)
/Users/davidebucci/Desktop/Synchronized/Vintage/Computing/Atari/ST/brown//lib/gcc/m68k-atariextrabrowner-elf/10.2.0/m68000/libgcc.a(_ltdf2.o)
                              /Users/davidebucci/Desktop/Synchronized/Vintage/Computing/Atari/ST/brown/lib/gcc/m68k-atariextrabrowner-elf/10.2.0/../../../../m68k-atariextrabrowner-elf/lib/m68000/libc.a(printf_fp.o) (___ltdf2)
/Users/davidebucci/Desktop/Synchronized/Vintage/Computing/Atari/ST/brown//lib/gcc/m68k-atariextrabrowner-elf/10.2.0/m68000/libgcc.a(fpgnulib.o)
                              /Users/davidebucci/Desktop/Synchronized/Vintage/Computing/Atari/ST/brown/lib/gcc/m68k-atariextrabrowner-elf/10.2.0/../../../../m68k-atariextrabrowner-elf/lib/m68000/libc.a(localtime.o) (___floatsidf)
/Users/davidebucci/Desktop/Synchronized/Vintage/Computing/Atari/ST/brown//lib/gcc/m68k-atariextrabrowner-elf/10.2.0/m68000/libgcc.a(xfgnulib.o)
                              /Users/davidebucci/Desktop/Synchronized/Vintage/Computing/Atari/ST/brown/lib/gcc/m68k-atariextrabrowner-elf/10.2.0/../../../../m68k-atariextrabrowner-elf/lib/m68000/libc.a(printf_fp.o) (___ltxf2)
/Users/davidebucci/Desktop/Synchronized/Vintage/Computing/Atari/ST/brown/lib/gcc/m68k-atariextrabrowner-elf/10.2.0/../../../../m68k-atariextrabrowner-elf/lib/m68000/libc.a(fputs.o)
                              /var/folders/sk/pxzc9l1n12xfhw7mpgdgdkdc0000gn/T//tdttr40.elf.LVtvPN.ltrans0.ltrans.o (_fputs)

Memory Configuration

Name             Origin             Length             Attributes
*default*        0x0000000000000000 0xffffffffffffffff

Linker script and memory map

LOAD /Users/davidebucci/Desktop/Synchronized/Vintage/Computing/Atari/ST/brown/lib/gcc/m68k-atariextrabrowner-elf/10.2.0/m68000/crtbegin.o
LOAD /Users/davidebucci/Desktop/Synchronized/Vintage/Computing/Atari/ST/brown//../bigbrownbuild-git/mintlib-bigbrownbuild-10.2.0/startup/crt0.o
LOAD cover_pics/tdttr.o
LOAD two_days_no_UTF8.o
LOAD /var/folders/sk/pxzc9l1n12xfhw7mpgdgdkdc0000gn/T//tdttr40.elf.LVtvPN.ltrans0.ltrans.o
LOAD inout40.o
LOAD loadsave.o
LOAD /Users/davidebucci/Desktop/Synchronized/Vintage/Computing/Atari/ST/brown//lib/gcc/m68k-atariextrabrowner-elf/10.2.0/m68000/libgcc.a
LOAD /Users/davidebucci/Desktop/Synchronized/Vintage/Computing/Atari/ST/brown/lib/gcc/m68k-atariextrabrowner-elf/10.2.0/../../../../m68k-atariextrabrowner-elf/lib/m68000/libc.a
LOAD /Users/davidebucci/Desktop/Synchronized/Vintage/Computing/Atari/ST/brown//lib/gcc/m68k-atariextrabrowner-elf/10.2.0/m68000/libgcc.a
LOAD /Users/davidebucci/Desktop/Synchronized/Vintage/Computing/Atari/ST/brown/lib/gcc/m68k-atariextrabrowner-elf/10.2.0/m68000/crtend.o
Address of section .text set to 0x0
                [!provide]                        PROVIDE (__executable_start = SEGMENT_START ("text-segment", 0x80000000))
                0x0000000080000094                . = (SEGMENT_START ("text-segment", 0x80000000) + SIZEOF_HEADERS)

.interp
 *(.interp)

.note.gnu.build-id
 *(.note.gnu.build-id)

.hash
 *(.hash)

.gnu.hash
 *(.gnu.hash)

.dynsym
 *(.dynsym)

.dynstr
 *(.dynstr)

.gnu.version
 *(.gnu.version)

.gnu.version_d
 *(.gnu.version_d)

.gnu.version_r
 *(.gnu.version_r)

.rela.dyn       0x0000000080000094        0x0
 *(.rela.init)
 *(.rela.text .rela.text.* .rela.gnu.linkonce.t.*)
 *(.rela.fini)
 *(.rela.rodata .rela.rodata.* .rela.gnu.linkonce.r.*)
 *(.rela.data .rela.data.* .rela.gnu.linkonce.d.*)
 *(.rela.tdata .rela.tdata.* .rela.gnu.linkonce.td.*)
 *(.rela.tbss .rela.tbss.* .rela.gnu.linkonce.tb.*)
 *(.rela.ctors)
 *(.rela.dtors)
 *(.rela.got)
 *(.rela.bss .rela.bss.* .rela.gnu.linkonce.b.*)
                [!provide]                        PROVIDE (__rela_iplt_start = .)
 *(.rela.iplt)
                [!provide]                        PROVIDE (__rela_iplt_end = .)

.rela.plt
 *(.rela.plt)

.init           0x0000000080000094        0xc
 *(SORT_NONE(.init))
 .init          0x0000000080000094        0x6 /Users/davidebucci/Desktop/Synchronized/Vintage/Computing/Atari/ST/brown/lib/gcc/m68k-atariextrabrowner-elf/10.2.0/m68000/crtbegin.o
 .init          0x000000008000009a        0x6 /Users/davidebucci/Desktop/Synchronized/Vintage/Computing/Atari/ST/brown/lib/gcc/m68k-atariextrabrowner-elf/10.2.0/m68000/crtend.o

.plt
 *(.plt)

.iplt
 *(.iplt)

.text           0x0000000000000000    0x3ed50
 *(.text.unlikely .text.*_unlikely .text.unlikely.*)
 .text.unlikely
                0x0000000000000000       0x14 /Users/davidebucci/Desktop/Synchronized/Vintage/Computing/Atari/ST/brown/lib/gcc/m68k-atariextrabrowner-elf/10.2.0/../../../../m68k-atariextrabrowner-elf/lib/m68000/libc.a(abort.o)
                0x0000000000000000                _abort
 *(.text.exit .text.exit.*)
 *(.text.startup .text.startup.*)
 .text.startup.main
                0x0000000000000014       0x4c /var/folders/sk/pxzc9l1n12xfhw7mpgdgdkdc0000gn/T//tdttr40.elf.LVtvPN.ltrans0.ltrans.o
                0x0000000000000014                _main
 *(.text.hot .text.hot.*)
 *(SORT_BY_NAME(.text.sorted.*))
 *(.text .stub .text.* .gnu.linkonce.t.*)
 .text          0x0000000000000060       0xf0 /Users/davidebucci/Desktop/Synchronized/Vintage/Computing/Atari/ST/brown/lib/gcc/m68k-atariextrabrowner-elf/10.2.0/m68000/crtbegin.o
 .text          0x0000000000000150       0x70 /Users/davidebucci/Desktop/Synchronized/Vintage/Computing/Atari/ST/brown//../bigbrownbuild-git/mintlib-bigbrownbuild-10.2.0/startup/crt0.o
                0x0000000000000150                __start
                0x00000000000001be                __monstartup
                0x00000000000001be                __moncontrol
                0x00000000000001be                ___mcleanup
 .text          0x00000000000001c0    0x20a16 cover_pics/tdttr.o
                0x00000000000001c6                _pic_display
 *fill*         0x0000000000020bd6        0x2 4e714e71
 .text          0x0000000000020bd8        0x0 /var/folders/sk/pxzc9l1n12xfhw7mpgdgdkdc0000gn/T//tdttr40.elf.LVtvPN.ltrans0.ltrans.o
 .text.restart  0x0000000000020bd8       0x92 /var/folders/sk/pxzc9l1n12xfhw7mpgdgdkdc0000gn/T//tdttr40.elf.LVtvPN.ltrans0.ltrans.o
 .text.object_is_available
                0x0000000000020c6a       0x7a /var/folders/sk/pxzc9l1n12xfhw7mpgdgdkdc0000gn/T//tdttr40.elf.LVtvPN.ltrans0.ltrans.o
 .text.cvna     0x0000000000020ce4       0x84 /var/folders/sk/pxzc9l1n12xfhw7mpgdgdkdc0000gn/T//tdttr40.elf.LVtvPN.ltrans0.ltrans.o
 .text.writesameln
                0x0000000000020d68      0x1f6 /var/folders/sk/pxzc9l1n12xfhw7mpgdgdkdc0000gn/T//tdttr40.elf.LVtvPN.ltrans0.ltrans.o
 .text.show_messagenlf
                0x0000000000020f5e      0x18c /var/folders/sk/pxzc9l1n12xfhw7mpgdgdkdc0000gn/T//tdttr40.elf.LVtvPN.ltrans0.ltrans.o
 .text.writesameln.constprop.0
                0x00000000000210ea      0x216 /var/folders/sk/pxzc9l1n12xfhw7mpgdgdkdc0000gn/T//tdttr40.elf.LVtvPN.ltrans0.ltrans.o
 .text.get      0x0000000000021300       0x98 /var/folders/sk/pxzc9l1n12xfhw7mpgdgdkdc0000gn/T//tdttr40.elf.LVtvPN.ltrans0.ltrans.o
 .text.drop     0x0000000000021398       0x70 /var/folders/sk/pxzc9l1n12xfhw7mpgdgdkdc0000gn/T//tdttr40.elf.LVtvPN.ltrans0.ltrans.o
 .text.unwear.constprop.0
                0x0000000000021408       0x84 /var/folders/sk/pxzc9l1n12xfhw7mpgdgdkdc0000gn/T//tdttr40.elf.LVtvPN.ltrans0.ltrans.o
 .text.writesameln.constprop.1
                0x000000000002148c      0x216 /var/folders/sk/pxzc9l1n12xfhw7mpgdgdkdc0000gn/T//tdttr40.elf.LVtvPN.ltrans0.ltrans.o
 .text.hi_cond  0x00000000000216a2      0x3ba /var/folders/sk/pxzc9l1n12xfhw7mpgdgdkdc0000gn/T//tdttr40.elf.LVtvPN.ltrans0.ltrans.o
 .text.wri      0x0000000000021a5c       0xf8 /var/folders/sk/pxzc9l1n12xfhw7mpgdgdkdc0000gn/T//tdttr40.elf.LVtvPN.ltrans0.ltrans.o
 .text.loadgame.constprop.0
                0x0000000000021b54      0x54e /var/folders/sk/pxzc9l1n12xfhw7mpgdgdkdc0000gn/T//tdttr40.elf.LVtvPN.ltrans0.ltrans.o
 .text.game_cycle
                0x00000000000220a2     0x5abe /var/folders/sk/pxzc9l1n12xfhw7mpgdgdkdc0000gn/T//tdttr40.elf.LVtvPN.ltrans0.ltrans.o
 .text          0x0000000000027b60       0x14 /Users/davidebucci/Desktop/Synchronized/Vintage/Computing/Atari/ST/brown/lib/gcc/m68k-atariextrabrowner-elf/10.2.0/../../../../m68k-atariextrabrowner-elf/lib/m68000/libc.a(checkcpu.o)
                0x0000000000027b60                __checkcpu
 .text          0x0000000000027b74      0x732 /Users/davidebucci/Desktop/Synchronized/Vintage/Computing/Atari/ST/brown/lib/gcc/m68k-atariextrabrowner-elf/10.2.0/../../../../m68k-atariextrabrowner-elf/lib/m68000/libc.a(crtinit.o)
                0x0000000000027b74                __acc_main
                0x0000000000027c82                __crtinit
 *fill*         0x00000000000282a6        0x2 4e714e71
 .text          0x00000000000282a8       0x6e /Users/davidebucci/Desktop/Synchronized/Vintage/Computing/Atari/ST/brown/lib/gcc/m68k-atariextrabrowner-elf/10.2.0/../../../../m68k-atariextrabrowner-elf/lib/m68000/libc.a(getenv.o)
                0x00000000000282a8                _getenv
 *fill*         0x0000000000028316        0x2 4e714e71
 .text          0x0000000000028318        0x0 /Users/davidebucci/Desktop/Synchronized/Vintage/Computing/Atari/ST/brown/lib/gcc/m68k-atariextrabrowner-elf/10.2.0/../../../../m68k-atariextrabrowner-elf/lib/m68000/libc.a(globals.o)
 .text          0x0000000000028318        0x0 /Users/davidebucci/Desktop/Synchronized/Vintage/Computing/Atari/ST/brown/lib/gcc/m68k-atariextrabrowner-elf/10.2.0/../../../../m68k-atariextrabrowner-elf/lib/m68000/libc.a(heapbase.o)
 .text          0x0000000000028318        0x0 /Users/davidebucci/Desktop/Synchronized/Vintage/Computing/Atari/ST/brown/lib/gcc/m68k-atariextrabrowner-elf/10.2.0/../../../../m68k-atariextrabrowner-elf/lib/m68000/libc.a(ident.o)
 .text          0x0000000000028318        0x0 /Users/davidebucci/Desktop/Synchronized/Vintage/Computing/Atari/ST/brown/lib/gcc/m68k-atariextrabrowner-elf/10.2.0/../../../../m68k-atariextrabrowner-elf/lib/m68000/libc.a(ident_dummy_gem.o)
 .text          0x0000000000028318        0x0 /Users/davidebucci/Desktop/Synchronized/Vintage/Computing/Atari/ST/brown/lib/gcc/m68k-atariextrabrowner-elf/10.2.0/../../../../m68k-atariextrabrowner-elf/lib/m68000/libc.a(inistack.o)
 .text          0x0000000000028318      0x6e2 /Users/davidebucci/Desktop/Synchronized/Vintage/Computing/Atari/ST/brown/lib/gcc/m68k-atariextrabrowner-elf/10.2.0/../../../../m68k-atariextrabrowner-elf/lib/m68000/libc.a(main.o)
                0x00000000000283b6                __main
                0x00000000000283b6                ___libc_main
 *fill*         0x00000000000289fa        0x2 4e714e71
 .text          0x00000000000289fc      0x4be /Users/davidebucci/Desktop/Synchronized/Vintage/Computing/Atari/ST/brown/lib/gcc/m68k-atariextrabrowner-elf/10.2.0/../../../../m68k-atariextrabrowner-elf/lib/m68000/libc.a(malloc.o)
                0x00000000000289fc                ___mallocChunkSize
                0x00000000000289fc                __mallocChunkSize
                0x0000000000028a0e                __malloczero
                0x0000000000028a0e                ___malloczero
                0x0000000000028a18                _malloc
                0x0000000000028a18                ___malloc
                0x0000000000028bf8                _free
                0x0000000000028bf8                ___free
 *fill*         0x0000000000028eba        0x2 4e714e71
 .text          0x0000000000028ebc      0x156 /Users/davidebucci/Desktop/Synchronized/Vintage/Computing/Atari/ST/brown/lib/gcc/m68k-atariextrabrowner-elf/10.2.0/../../../../m68k-atariextrabrowner-elf/lib/m68000/libc.a(realloc.o)
                0x0000000000028ebc                ___realloc
                0x0000000000028ebc                _realloc
 *fill*         0x0000000000029012        0x2 4e714e71
 .text          0x0000000000029014        0xc /Users/davidebucci/Desktop/Synchronized/Vintage/Computing/Atari/ST/brown/lib/gcc/m68k-atariextrabrowner-elf/10.2.0/../../../../m68k-atariextrabrowner-elf/lib/m68000/libc.a(setstack.o)
                0x0000000000029014                __setstack
 .text          0x0000000000029020        0x0 /Users/davidebucci/Desktop/Synchronized/Vintage/Computing/Atari/ST/brown/lib/gcc/m68k-atariextrabrowner-elf/10.2.0/../../../../m68k-atariextrabrowner-elf/lib/m68000/libc.a(stksiz.o)
 .text          0x0000000000029020      0x4ca /Users/davidebucci/Desktop/Synchronized/Vintage/Computing/Atari/ST/brown/lib/gcc/m68k-atariextrabrowner-elf/10.2.0/../../../../m68k-atariextrabrowner-elf/lib/m68000/libc.a(unx2dos.o)
                0x0000000000029020                __unx2dos
                0x0000000000029242                __dos2unx
                0x000000000002937c                _unx2dos
                0x0000000000029392                _dos2unx
                0x00000000000293a8                __path_unx2dos
                0x0000000000029446                __path_dos2unx
 *fill*         0x00000000000294ea        0x2 4e714e71
 .text          0x00000000000294ec       0x24 /Users/davidebucci/Desktop/Synchronized/Vintage/Computing/Atari/ST/brown/lib/gcc/m68k-atariextrabrowner-elf/10.2.0/../../../../m68k-atariextrabrowner-elf/lib/m68000/libc.a(initsig.o)
                0x00000000000294ec                __init_signal
 .text          0x0000000000029510       0xcc /Users/davidebucci/Desktop/Synchronized/Vintage/Computing/Atari/ST/brown/lib/gcc/m68k-atariextrabrowner-elf/10.2.0/../../../../m68k-atariextrabrowner-elf/lib/m68000/libc.a(binmode.o)
                0x0000000000029510                __binmode
                0x0000000000029510                ___binmode
                0x000000000002952a                ___set_binmode
 .text          0x00000000000295dc        0x0 /Users/davidebucci/Desktop/Synchronized/Vintage/Computing/Atari/ST/brown/lib/gcc/m68k-atariextrabrowner-elf/10.2.0/../../../../m68k-atariextrabrowner-elf/lib/m68000/libc.a(defmode.o)
 .text          0x00000000000295dc       0xea /Users/davidebucci/Desktop/Synchronized/Vintage/Computing/Atari/ST/brown/lib/gcc/m68k-atariextrabrowner-elf/10.2.0/../../../../m68k-atariextrabrowner-elf/lib/m68000/libc.a(fclose.o)
                0x00000000000295dc                _fclose
 *fill*         0x00000000000296c6        0x2 4e714e71
 .text          0x00000000000296c8      0x208 /Users/davidebucci/Desktop/Synchronized/Vintage/Computing/Atari/ST/brown/lib/gcc/m68k-atariextrabrowner-elf/10.2.0/../../../../m68k-atariextrabrowner-elf/lib/m68000/libc.a(fgets.o)
                0x00000000000296c8                _fgets_unlocked
                0x00000000000296c8                _fgets
 .text          0x00000000000298d0       0x64 /Users/davidebucci/Desktop/Synchronized/Vintage/Computing/Atari/ST/brown/lib/gcc/m68k-atariextrabrowner-elf/10.2.0/../../../../m68k-atariextrabrowner-elf/lib/m68000/libc.a(fileno.o)
                0x00000000000298d0                _fileno
                0x00000000000298d0                _fileno_unlocked
 .text          0x0000000000029934      0x156 /Users/davidebucci/Desktop/Synchronized/Vintage/Computing/Atari/ST/brown/lib/gcc/m68k-atariextrabrowner-elf/10.2.0/../../../../m68k-atariextrabrowner-elf/lib/m68000/libc.a(fopen.o)
                0x00000000000299d4                ___getmode
                0x00000000000299ea                _fopen
 *fill*         0x0000000000029a8a        0x2 4e714e71
 .text          0x0000000000029a8c       0x2c /Users/davidebucci/Desktop/Synchronized/Vintage/Computing/Atari/ST/brown/lib/gcc/m68k-atariextrabrowner-elf/10.2.0/../../../../m68k-atariextrabrowner-elf/lib/m68000/libc.a(getchar.o)
                0x0000000000029a8c                _getchar_unlocked
                0x0000000000029a8c                _getchar
 .text          0x0000000000029ab8      0xbb4 /Users/davidebucci/Desktop/Synchronized/Vintage/Computing/Atari/ST/brown/lib/gcc/m68k-atariextrabrowner-elf/10.2.0/../../../../m68k-atariextrabrowner-elf/lib/m68000/libc.a(internals.o)
                0x0000000000029c08                ___stdio_check_funcs
                0x0000000000029ca4                ___stdio_check_offset
                0x000000000002a2f6                ___flshfp
                0x000000000002a488                ___fillbf
                0x000000000002a644                ___invalidate
 .text          0x000000000002a66c       0x76 /Users/davidebucci/Desktop/Synchronized/Vintage/Computing/Atari/ST/brown/lib/gcc/m68k-atariextrabrowner-elf/10.2.0/../../../../m68k-atariextrabrowner-elf/lib/m68000/libc.a(newstream.o)
                0x000000000002a66c                ___newstream
 *fill*         0x000000000002a6e2        0x2 4e714e71
 .text          0x000000000002a6e4      0x118 /Users/davidebucci/Desktop/Synchronized/Vintage/Computing/Atari/ST/brown/lib/gcc/m68k-atariextrabrowner-elf/10.2.0/../../../../m68k-atariextrabrowner-elf/lib/m68000/libc.a(setvbuf.o)
                0x000000000002a6e4                _setvbuf
 .text          0x000000000002a7fc       0x84 /Users/davidebucci/Desktop/Synchronized/Vintage/Computing/Atari/ST/brown/lib/gcc/m68k-atariextrabrowner-elf/10.2.0/../../../../m68k-atariextrabrowner-elf/lib/m68000/libc.a(stdio_init.o)
                0x000000000002a7fc                ___stdio_init_stream
 .text          0x000000000002a880      0x398 /Users/davidebucci/Desktop/Synchronized/Vintage/Computing/Atari/ST/brown/lib/gcc/m68k-atariextrabrowner-elf/10.2.0/../../../../m68k-atariextrabrowner-elf/lib/m68000/libc.a(sysd-stdio.o)
                0x000000000002a880                ___stdio_close
                0x000000000002a886                ___stdio_read
                0x000000000002a88c                ___stdio_text_read
                0x000000000002a994                ___stdio_write
                0x000000000002a9e2                ___stdio_text_write
                0x000000000002aad0                ___stdio_seek
                0x000000000002aafc                ___stdio_fileno
                0x000000000002ab02                ___stdio_open
                0x000000000002ab84                ___stdio_reopen
 .text          0x000000000002ac18       0x16 /Users/davidebucci/Desktop/Synchronized/Vintage/Computing/Atari/ST/brown/lib/gcc/m68k-atariextrabrowner-elf/10.2.0/../../../../m68k-atariextrabrowner-elf/lib/m68000/libc.a(atoi.o)
                0x000000000002ac18                _atoi
 *fill*         0x000000000002ac2e        0x2 4e714e71
 .text          0x000000000002ac30       0x38 /Users/davidebucci/Desktop/Synchronized/Vintage/Computing/Atari/ST/brown/lib/gcc/m68k-atariextrabrowner-elf/10.2.0/../../../../m68k-atariextrabrowner-elf/lib/m68000/libc.a(exit.o)
                0x000000000002ac30                ___exit
                0x000000000002ac30                _exit
 .text          0x000000000002ac68       0x7a /Users/davidebucci/Desktop/Synchronized/Vintage/Computing/Atari/ST/brown/lib/gcc/m68k-atariextrabrowner-elf/10.2.0/../../../../m68k-atariextrabrowner-elf/lib/m68000/libc.a(rand.o)
                0x000000000002ac68                _srand
                0x000000000002ac72                _rand
 *fill*         0x000000000002ace2        0x2 4e714e71
 .text          0x000000000002ace4      0x330 /Users/davidebucci/Desktop/Synchronized/Vintage/Computing/Atari/ST/brown/lib/gcc/m68k-atariextrabrowner-elf/10.2.0/../../../../m68k-atariextrabrowner-elf/lib/m68000/libc.a(strtol.o)
                0x000000000002afc8                ___strtol_internal
                0x000000000002afee                _strtol
 .text          0x000000000002b014      0x1c4 /Users/davidebucci/Desktop/Synchronized/Vintage/Computing/Atari/ST/brown/lib/gcc/m68k-atariextrabrowner-elf/10.2.0/../../../../m68k-atariextrabrowner-elf/lib/m68000/libc.a(bcopy.o)
                0x000000000002b014                _memcpy
                0x000000000002b014                _memmove
                0x000000000002b01e                ___bcopy
                0x000000000002b01e                _bcopy
                0x000000000002b01e                __bcopy
 .text          0x000000000002b1d8       0xa8 /Users/davidebucci/Desktop/Synchronized/Vintage/Computing/Atari/ST/brown/lib/gcc/m68k-atariextrabrowner-elf/10.2.0/../../../../m68k-atariextrabrowner-elf/lib/m68000/libc.a(bzero.o)
                0x000000000002b1d8                _bzero
                0x000000000002b1d8                __bzero
                0x000000000002b1d8                ___bzero
 .text          0x000000000002b280       0x32 /Users/davidebucci/Desktop/Synchronized/Vintage/Computing/Atari/ST/brown/lib/gcc/m68k-atariextrabrowner-elf/10.2.0/../../../../m68k-atariextrabrowner-elf/lib/m68000/libc.a(memccpy.o)
                0x000000000002b280                _memccpy
                0x000000000002b280                ___memccpy
 *fill*         0x000000000002b2b2        0x2 4e714e71
 .text          0x000000000002b2b4       0xaa /Users/davidebucci/Desktop/Synchronized/Vintage/Computing/Atari/ST/brown/lib/gcc/m68k-atariextrabrowner-elf/10.2.0/../../../../m68k-atariextrabrowner-elf/lib/m68000/libc.a(memset.o)
                0x000000000002b2b4                _memset
 *fill*         0x000000000002b35e        0x2 4e714e71
 .text          0x000000000002b360       0x36 /Users/davidebucci/Desktop/Synchronized/Vintage/Computing/Atari/ST/brown/lib/gcc/m68k-atariextrabrowner-elf/10.2.0/../../../../m68k-atariextrabrowner-elf/lib/m68000/libc.a(strcmp.o)
                0x000000000002b360                _strcmp
 *fill*         0x000000000002b396        0x2 4e714e71
 .text          0x000000000002b398       0x18 /Users/davidebucci/Desktop/Synchronized/Vintage/Computing/Atari/ST/brown/lib/gcc/m68k-atariextrabrowner-elf/10.2.0/../../../../m68k-atariextrabrowner-elf/lib/m68000/libc.a(strlen.o)
                0x000000000002b398                _strlen
 .text          0x000000000002b3b0       0x40 /Users/davidebucci/Desktop/Synchronized/Vintage/Computing/Atari/ST/brown/lib/gcc/m68k-atariextrabrowner-elf/10.2.0/../../../../m68k-atariextrabrowner-elf/lib/m68000/libc.a(strncat.o)
                0x000000000002b3b0                _strncat
 .text          0x000000000002b3f0       0x5a /Users/davidebucci/Desktop/Synchronized/Vintage/Computing/Atari/ST/brown/lib/gcc/m68k-atariextrabrowner-elf/10.2.0/../../../../m68k-atariextrabrowner-elf/lib/m68000/libc.a(strncmp.o)
                0x000000000002b3f0                _strncmp
 *fill*         0x000000000002b44a        0x2 4e714e71
 .text          0x000000000002b44c       0x40 /Users/davidebucci/Desktop/Synchronized/Vintage/Computing/Atari/ST/brown/lib/gcc/m68k-atariextrabrowner-elf/10.2.0/../../../../m68k-atariextrabrowner-elf/lib/m68000/libc.a(strncpy.o)
                0x000000000002b44c                _strncpy
 .text          0x000000000002b48c       0x4c /Users/davidebucci/Desktop/Synchronized/Vintage/Computing/Atari/ST/brown/lib/gcc/m68k-atariextrabrowner-elf/10.2.0/../../../../m68k-atariextrabrowner-elf/lib/m68000/libc.a(strrchr.o)
                0x000000000002b48c                _rindex
                0x000000000002b48c                _strrchr
 .text          0x000000000002b4d8       0x58 /Users/davidebucci/Desktop/Synchronized/Vintage/Computing/Atari/ST/brown/lib/gcc/m68k-atariextrabrowner-elf/10.2.0/../../../../m68k-atariextrabrowner-elf/lib/m68000/libc.a(close.o)
                0x000000000002b4d8                ___close
                0x000000000002b4d8                _close
 .text          0x000000000002b530       0xd4 /Users/davidebucci/Desktop/Synchronized/Vintage/Computing/Atari/ST/brown/lib/gcc/m68k-atariextrabrowner-elf/10.2.0/../../../../m68k-atariextrabrowner-elf/lib/m68000/libc.a(dup2.o)
                0x000000000002b530                _dup2
                0x000000000002b530                ___dup2
 .text          0x000000000002b604       0x18 /Users/davidebucci/Desktop/Synchronized/Vintage/Computing/Atari/ST/brown/lib/gcc/m68k-atariextrabrowner-elf/10.2.0/../../../../m68k-atariextrabrowner-elf/lib/m68000/libc.a(fstat.o)
                0x000000000002b604                _fstat
                0x000000000002b604                ___fstat
 .text          0x000000000002b61c       0x4c /Users/davidebucci/Desktop/Synchronized/Vintage/Computing/Atari/ST/brown/lib/gcc/m68k-atariextrabrowner-elf/10.2.0/../../../../m68k-atariextrabrowner-elf/lib/m68000/libc.a(getpagesize.o)
                0x000000000002b61c                ___getpagesize
                0x000000000002b61c                _getpagesize
 .text          0x000000000002b668      0x154 /Users/davidebucci/Desktop/Synchronized/Vintage/Computing/Atari/ST/brown/lib/gcc/m68k-atariextrabrowner-elf/10.2.0/../../../../m68k-atariextrabrowner-elf/lib/m68000/libc.a(lseek.o)
                0x000000000002b668                ___lseek
                0x000000000002b668                _lseek
 .text          0x000000000002b7bc      0x94e /Users/davidebucci/Desktop/Synchronized/Vintage/Computing/Atari/ST/brown/lib/gcc/m68k-atariextrabrowner-elf/10.2.0/../../../../m68k-atariextrabrowner-elf/lib/m68000/libc.a(open.o)
                0x000000000002b862                ___open_v
                0x000000000002c0ee                _open
                0x000000000002c0ee                ___open
 *fill*         0x000000000002c10a        0x2 4e714e71
 .text          0x000000000002c10c      0x430 /Users/davidebucci/Desktop/Synchronized/Vintage/Computing/Atari/ST/brown/lib/gcc/m68k-atariextrabrowner-elf/10.2.0/../../../../m68k-atariextrabrowner-elf/lib/m68000/libc.a(read.o)
                0x000000000002c10c                _read
                0x000000000002c10c                ___read
 .text          0x000000000002c53c       0x82 /Users/davidebucci/Desktop/Synchronized/Vintage/Computing/Atari/ST/brown/lib/gcc/m68k-atariextrabrowner-elf/10.2.0/../../../../m68k-atariextrabrowner-elf/lib/m68000/libc.a(sbrk.o)
                0x000000000002c53c                _sbrk
                0x000000000002c53c                ___sbrk
 *fill*         0x000000000002c5be        0x2 4e714e71
 .text          0x000000000002c5c0       0x4c /Users/davidebucci/Desktop/Synchronized/Vintage/Computing/Atari/ST/brown/lib/gcc/m68k-atariextrabrowner-elf/10.2.0/../../../../m68k-atariextrabrowner-elf/lib/m68000/libc.a(sysctl.o)
                0x000000000002c5c0                ___sysctl
                0x000000000002c5c0                _sysctl
 .text          0x000000000002c60c      0x178 /Users/davidebucci/Desktop/Synchronized/Vintage/Computing/Atari/ST/brown/lib/gcc/m68k-atariextrabrowner-elf/10.2.0/../../../../m68k-atariextrabrowner-elf/lib/m68000/libc.a(write.o)
                0x000000000002c60c                _write
                0x000000000002c60c                ___write
 .text          0x000000000002c784        0x0 /Users/davidebucci/Desktop/Synchronized/Vintage/Computing/Atari/ST/brown/lib/gcc/m68k-atariextrabrowner-elf/10.2.0/../../../../m68k-atariextrabrowner-elf/lib/m68000/libc.a(ident_sock.o)
 .text          0x000000000002c784      0x17c /Users/davidebucci/Desktop/Synchronized/Vintage/Computing/Atari/ST/brown/lib/gcc/m68k-atariextrabrowner-elf/10.2.0/../../../../m68k-atariextrabrowner-elf/lib/m68000/libc.a(assert.o)
                0x000000000002c784                ___assert_fail
 .text          0x000000000002c900       0x8e /Users/davidebucci/Desktop/Synchronized/Vintage/Computing/Atari/ST/brown/lib/gcc/m68k-atariextrabrowner-elf/10.2.0/../../../../m68k-atariextrabrowner-elf/lib/m68000/libc.a(console.o)
                0x000000000002c900                __console_read_byte
                0x000000000002c960                __console_write_byte
 *fill*         0x000000000002c98e        0x2 4e714e71
 .text          0x000000000002c990      0x1b4 /Users/davidebucci/Desktop/Synchronized/Vintage/Computing/Atari/ST/brown/lib/gcc/m68k-atariextrabrowner-elf/10.2.0/../../../../m68k-atariextrabrowner-elf/lib/m68000/libc.a(ctype.o)
                0x000000000002c990                _isalnum
                0x000000000002c9b0                _isalpha
                0x000000000002c9d0                _isascii
                0x000000000002c9e0                _toascii
                0x000000000002c9e8                _iscntrl
                0x000000000002ca1c                _isdigit
                0x000000000002ca3c                _isgraph
                0x000000000002ca5e                _islower
                0x000000000002ca80                _isprint
                0x000000000002caa2                _ispunct
                0x000000000002cac2                _isspace
                0x000000000002cae2                _isupper
                0x000000000002cb02                _isxdigit
                0x000000000002cb22                ___isblank
                0x000000000002cb22                _isblank
 .text          0x000000000002cb44      0x448 /Users/davidebucci/Desktop/Synchronized/Vintage/Computing/Atari/ST/brown/lib/gcc/m68k-atariextrabrowner-elf/10.2.0/../../../../m68k-atariextrabrowner-elf/lib/m68000/libc.a(do_fstat.o)
                0x000000000002cb44                ___sys_fstat
                0x000000000002cca8                ___do_fstat
 .text          0x000000000002cf8c      0x134 /Users/davidebucci/Desktop/Synchronized/Vintage/Computing/Atari/ST/brown/lib/gcc/m68k-atariextrabrowner-elf/10.2.0/../../../../m68k-atariextrabrowner-elf/lib/m68000/libc.a(enoent.o)
                0x000000000002cf8c                __enoent
 .text          0x000000000002d0c0       0x7e /Users/davidebucci/Desktop/Synchronized/Vintage/Computing/Atari/ST/brown/lib/gcc/m68k-atariextrabrowner-elf/10.2.0/../../../../m68k-atariextrabrowner-elf/lib/m68000/libc.a(getcookie.o)
                0x000000000002d0c0                _Getcookie
 *fill*         0x000000000002d13e        0x2 4e714e71
 .text          0x000000000002d140       0x60 /Users/davidebucci/Desktop/Synchronized/Vintage/Computing/Atari/ST/brown/lib/gcc/m68k-atariextrabrowner-elf/10.2.0/../../../../m68k-atariextrabrowner-elf/lib/m68000/libc.a(getsysvar.o)
                0x000000000002d140                _get_sysvar
 .text          0x000000000002d1a0        0x0 /Users/davidebucci/Desktop/Synchronized/Vintage/Computing/Atari/ST/brown/lib/gcc/m68k-atariextrabrowner-elf/10.2.0/../../../../m68k-atariextrabrowner-elf/lib/m68000/libc.a(inode.o)
 .text          0x000000000002d1a0      0x112 /Users/davidebucci/Desktop/Synchronized/Vintage/Computing/Atari/ST/brown/lib/gcc/m68k-atariextrabrowner-elf/10.2.0/../../../../m68k-atariextrabrowner-elf/lib/m68000/libc.a(isatty.o)
                0x000000000002d1a0                ___isatty
                0x000000000002d1a0                _isatty
 *fill*         0x000000000002d2b2        0x2 4e714e71
 .text          0x000000000002d2b4       0xb2 /Users/davidebucci/Desktop/Synchronized/Vintage/Computing/Atari/ST/brown/lib/gcc/m68k-atariextrabrowner-elf/10.2.0/../../../../m68k-atariextrabrowner-elf/lib/m68000/libc.a(isctty.o)
                0x000000000002d2b4                __isctty
 *fill*         0x000000000002d366        0x2 4e714e71
 .text          0x000000000002d368       0x1a /Users/davidebucci/Desktop/Synchronized/Vintage/Computing/Atari/ST/brown/lib/gcc/m68k-atariextrabrowner-elf/10.2.0/../../../../m68k-atariextrabrowner-elf/lib/m68000/libc.a(libc_exit.o)
                0x000000000002d368                __exit
                0x000000000002d368                ___libc_exit
 *fill*         0x000000000002d382        0x2 4e714e71
 .text          0x000000000002d384      0x57e /Users/davidebucci/Desktop/Synchronized/Vintage/Computing/Atari/ST/brown/lib/gcc/m68k-atariextrabrowner-elf/10.2.0/../../../../m68k-atariextrabrowner-elf/lib/m68000/libc.a(quickstat.o)
                0x000000000002d384                ___quickstat
 *fill*         0x000000000002d902        0x2 4e714e71
 .text          0x000000000002d904       0x4c /Users/davidebucci/Desktop/Synchronized/Vintage/Computing/Atari/ST/brown/lib/gcc/m68k-atariextrabrowner-elf/10.2.0/../../../../m68k-atariextrabrowner-elf/lib/m68000/libc.a(toxxx.o)
                0x000000000002d904                __toupper
                0x000000000002d904                _toupper
                0x000000000002d92a                __tolower
                0x000000000002d92a                _tolower
 .text          0x000000000002d950       0x72 /Users/davidebucci/Desktop/Synchronized/Vintage/Computing/Atari/ST/brown/lib/gcc/m68k-atariextrabrowner-elf/10.2.0/../../../../m68k-atariextrabrowner-elf/lib/m68000/libc.a(unixtime.o)
                0x000000000002d950                ___unixtime
 *fill*         0x000000000002d9c2        0x2 4e714e71
 .text          0x000000000002d9c4       0x16 /Users/davidebucci/Desktop/Synchronized/Vintage/Computing/Atari/ST/brown/lib/gcc/m68k-atariextrabrowner-elf/10.2.0/../../../../m68k-atariextrabrowner-elf/lib/m68000/libc.a(raise.o)
                0x000000000002d9c4                _gsignal
                0x000000000002d9c4                _raise
 *fill*         0x000000000002d9da        0x2 4e714e71
 .text          0x000000000002d9dc       0x5c /Users/davidebucci/Desktop/Synchronized/Vintage/Computing/Atari/ST/brown/lib/gcc/m68k-atariextrabrowner-elf/10.2.0/../../../../m68k-atariextrabrowner-elf/lib/m68000/libc.a(fcloseall.o)
                0x000000000002d9dc                _fcloseall
                0x000000000002d9dc                ___fcloseall
 .text          0x000000000002da38       0xce /Users/davidebucci/Desktop/Synchronized/Vintage/Computing/Atari/ST/brown/lib/gcc/m68k-atariextrabrowner-elf/10.2.0/../../../../m68k-atariextrabrowner-elf/lib/m68000/libc.a(fflush.o)
                0x000000000002da38                _fflush
                0x000000000002da38                _fflush_unlocked
 *fill*         0x000000000002db06        0x2 4e714e71
 .text          0x000000000002db08        0x0 /Users/davidebucci/Desktop/Synchronized/Vintage/Computing/Atari/ST/brown/lib/gcc/m68k-atariextrabrowner-elf/10.2.0/../../../../m68k-atariextrabrowner-elf/lib/m68000/libc.a(itoa-digits.o)
 .text          0x000000000002db08      0x318 /Users/davidebucci/Desktop/Synchronized/Vintage/Computing/Atari/ST/brown/lib/gcc/m68k-atariextrabrowner-elf/10.2.0/../../../../m68k-atariextrabrowner-elf/lib/m68000/libc.a(strtoul.o)
                0x000000000002ddd4                ___strtoul_internal
                0x000000000002ddfa                _strtoul
 .text          0x000000000002de20       0x1c /Users/davidebucci/Desktop/Synchronized/Vintage/Computing/Atari/ST/brown/lib/gcc/m68k-atariextrabrowner-elf/10.2.0/../../../../m68k-atariextrabrowner-elf/lib/m68000/libc.a(strchr.o)
                0x000000000002de20                _strchr
                0x000000000002de20                _index
                0x000000000002de20                ___strchr
 .text          0x000000000002de3c     0x2c7c /Users/davidebucci/Desktop/Synchronized/Vintage/Computing/Atari/ST/brown/lib/gcc/m68k-atariextrabrowner-elf/10.2.0/../../../../m68k-atariextrabrowner-elf/lib/m68000/libc.a(localtime.o)
                0x00000000000304aa                _tzsetwall
                0x0000000000030554                _tzset
                0x00000000000306c4                _localtime
                0x00000000000306de                _localtime_r
                0x00000000000306f2                _gmtime
                0x000000000003078a                _gmtime_r
                0x000000000003081e                _offtime
                0x00000000000308ba                _ctime
                0x00000000000308e2                _ctime_r
                0x0000000000030908                _mktime
                0x0000000000030920                _timelocal
                0x000000000003094a                _timegm
                0x000000000003096a                _timeoff
                0x000000000003098c                _time2posix
                0x00000000000309ca                _posix2time
 .text          0x0000000000030ab8       0xf2 /Users/davidebucci/Desktop/Synchronized/Vintage/Computing/Atari/ST/brown/lib/gcc/m68k-atariextrabrowner-elf/10.2.0/../../../../m68k-atariextrabrowner-elf/lib/m68000/libc.a(access.o)
                0x0000000000030ab8                _access
                0x0000000000030ab8                ___access
 *fill*         0x0000000000030baa        0x2 4e714e71
 .text          0x0000000000030bac      0x142 /Users/davidebucci/Desktop/Synchronized/Vintage/Computing/Atari/ST/brown/lib/gcc/m68k-atariextrabrowner-elf/10.2.0/../../../../m68k-atariextrabrowner-elf/lib/m68000/libc.a(chmod.o)
                0x0000000000030bac                ___chmod
                0x0000000000030bac                _chmod
 *fill*         0x0000000000030cee        0x2 4e714e71
 .text          0x0000000000030cf0       0x30 /Users/davidebucci/Desktop/Synchronized/Vintage/Computing/Atari/ST/brown/lib/gcc/m68k-atariextrabrowner-elf/10.2.0/../../../../m68k-atariextrabrowner-elf/lib/m68000/libc.a(getegid.o)
                0x0000000000030cf0                _getegid
                0x0000000000030cf0                ___getegid
 .text          0x0000000000030d20       0x30 /Users/davidebucci/Desktop/Synchronized/Vintage/Computing/Atari/ST/brown/lib/gcc/m68k-atariextrabrowner-elf/10.2.0/../../../../m68k-atariextrabrowner-elf/lib/m68000/libc.a(geteuid.o)
                0x0000000000030d20                ___geteuid
                0x0000000000030d20                _geteuid
 .text          0x0000000000030d50       0x2c /Users/davidebucci/Desktop/Synchronized/Vintage/Computing/Atari/ST/brown/lib/gcc/m68k-atariextrabrowner-elf/10.2.0/../../../../m68k-atariextrabrowner-elf/lib/m68000/libc.a(getgid.o)
                0x0000000000030d50                _getgid
                0x0000000000030d50                ___getgid
 .text          0x0000000000030d7c      0x134 /Users/davidebucci/Desktop/Synchronized/Vintage/Computing/Atari/ST/brown/lib/gcc/m68k-atariextrabrowner-elf/10.2.0/../../../../m68k-atariextrabrowner-elf/lib/m68000/libc.a(getgroups.o)
                0x0000000000030d7c                ___getgroups
                0x0000000000030d7c                _getgroups
 .text          0x0000000000030eb0       0x2e /Users/davidebucci/Desktop/Synchronized/Vintage/Computing/Atari/ST/brown/lib/gcc/m68k-atariextrabrowner-elf/10.2.0/../../../../m68k-atariextrabrowner-elf/lib/m68000/libc.a(getpid.o)
                0x0000000000030eb0                _getpid
                0x0000000000030eb0                ___getpid
 *fill*         0x0000000000030ede        0x2 4e714e71
 .text          0x0000000000030ee0       0x26 /Users/davidebucci/Desktop/Synchronized/Vintage/Computing/Atari/ST/brown/lib/gcc/m68k-atariextrabrowner-elf/10.2.0/../../../../m68k-atariextrabrowner-elf/lib/m68000/libc.a(getuid.o)
                0x0000000000030ee0                _getuid
                0x0000000000030ee0                ___getuid
 *fill*         0x0000000000030f06        0x2 4e714e71
 .text          0x0000000000030f08      0x67a /Users/davidebucci/Desktop/Synchronized/Vintage/Computing/Atari/ST/brown/lib/gcc/m68k-atariextrabrowner-elf/10.2.0/../../../../m68k-atariextrabrowner-elf/lib/m68000/libc.a(ioctl.o)
                0x0000000000030f08                ___ioctl
                0x0000000000030f08                _ioctl
 *fill*         0x0000000000031582        0x2 4e714e71
 .text          0x0000000000031584      0x126 /Users/davidebucci/Desktop/Synchronized/Vintage/Computing/Atari/ST/brown/lib/gcc/m68k-atariextrabrowner-elf/10.2.0/../../../../m68k-atariextrabrowner-elf/lib/m68000/libc.a(kill.o)
                0x0000000000031584                ___kill
                0x0000000000031584                _kill
 *fill*         0x00000000000316aa        0x2 4e714e71
 .text          0x00000000000316ac       0x3a /Users/davidebucci/Desktop/Synchronized/Vintage/Computing/Atari/ST/brown/lib/gcc/m68k-atariextrabrowner-elf/10.2.0/../../../../m68k-atariextrabrowner-elf/lib/m68000/libc.a(time.o)
                0x00000000000316ac                ___time
                0x00000000000316ac                _time
 *fill*         0x00000000000316e6        0x2 4e714e71
 .text          0x00000000000316e8        0x0 /Users/davidebucci/Desktop/Synchronized/Vintage/Computing/Atari/ST/brown/lib/gcc/m68k-atariextrabrowner-elf/10.2.0/../../../../m68k-atariextrabrowner-elf/lib/m68000/libc.a(abort.o)
 .text          0x00000000000316e8        0x0 /Users/davidebucci/Desktop/Synchronized/Vintage/Computing/Atari/ST/brown/lib/gcc/m68k-atariextrabrowner-elf/10.2.0/../../../../m68k-atariextrabrowner-elf/lib/m68000/libc.a(alglobal.o)
 .text          0x00000000000316e8       0x3e /Users/davidebucci/Desktop/Synchronized/Vintage/Computing/Atari/ST/brown/lib/gcc/m68k-atariextrabrowner-elf/10.2.0/../../../../m68k-atariextrabrowner-elf/lib/m68000/libc.a(calloc.o)
                0x00000000000316e8                _calloc
                0x00000000000316e8                ___calloc
 *fill*         0x0000000000031726        0x2 4e714e71
 .text          0x0000000000031728      0x7d2 /Users/davidebucci/Desktop/Synchronized/Vintage/Computing/Atari/ST/brown/lib/gcc/m68k-atariextrabrowner-elf/10.2.0/../../../../m68k-atariextrabrowner-elf/lib/m68000/libc.a(do_stat.o)
                0x0000000000031728                ___sys_stat
                0x0000000000031874                ___do_stat
 *fill*         0x0000000000031efa        0x2 4e714e71
 .text          0x0000000000031efc        0x0 /Users/davidebucci/Desktop/Synchronized/Vintage/Computing/Atari/ST/brown/lib/gcc/m68k-atariextrabrowner-elf/10.2.0/../../../../m68k-atariextrabrowner-elf/lib/m68000/libc.a(uidgid.o)
 .text          0x0000000000031efc       0x38 /Users/davidebucci/Desktop/Synchronized/Vintage/Computing/Atari/ST/brown/lib/gcc/m68k-atariextrabrowner-elf/10.2.0/../../../../m68k-atariextrabrowner-elf/lib/m68000/libc.a(getpwuid.o)
                0x0000000000031efc                _getpwuid
 .text          0x0000000000031f34       0x92 /Users/davidebucci/Desktop/Synchronized/Vintage/Computing/Atari/ST/brown/lib/gcc/m68k-atariextrabrowner-elf/10.2.0/../../../../m68k-atariextrabrowner-elf/lib/m68000/libc.a(getpwuid_r.o)
                0x0000000000031f34                _getpwuid_r
                0x0000000000031f34                ___getpwuid_r
 *fill*         0x0000000000031fc6        0x2 4e714e71
 .text          0x0000000000031fc8      0x452 /Users/davidebucci/Desktop/Synchronized/Vintage/Computing/Atari/ST/brown/lib/gcc/m68k-atariextrabrowner-elf/10.2.0/../../../../m68k-atariextrabrowner-elf/lib/m68000/libc.a(grp.o)
                0x00000000000321ac                _setgrent
                0x00000000000321dc                _endgrent
                0x00000000000321f6                _getgrent
                0x000000000003224a                _getgrgid
                0x000000000003230a                _getgrnam
                0x00000000000323e6                _fgetgrent
 *fill*         0x000000000003241a        0x2 4e714e71
 .text          0x000000000003241c       0x2a /Users/davidebucci/Desktop/Synchronized/Vintage/Computing/Atari/ST/brown/lib/gcc/m68k-atariextrabrowner-elf/10.2.0/../../../../m68k-atariextrabrowner-elf/lib/m68000/libc.a(rewind.o)
                0x000000000003241c                _rewind
 *fill*         0x0000000000032446        0x2 4e714e71
 .text          0x0000000000032448      0x1b6 /Users/davidebucci/Desktop/Synchronized/Vintage/Computing/Atari/ST/brown/lib/gcc/m68k-atariextrabrowner-elf/10.2.0/../../../../m68k-atariextrabrowner-elf/lib/m68000/libc.a(asctime.o)
                0x0000000000032448                _asctime_r
                0x00000000000325ec                _asctime
 *fill*         0x00000000000325fe        0x2 4e714e71
 .text          0x0000000000032600     0x1506 /Users/davidebucci/Desktop/Synchronized/Vintage/Computing/Atari/ST/brown/lib/gcc/m68k-atariextrabrowner-elf/10.2.0/../../../../m68k-atariextrabrowner-elf/lib/m68000/libc.a(strftime.o)
                0x00000000000339ba                _strftime
 *fill*         0x0000000000033b06        0x2 4e714e71
 .text          0x0000000000033b08      0x114 /Users/davidebucci/Desktop/Synchronized/Vintage/Computing/Atari/ST/brown/lib/gcc/m68k-atariextrabrowner-elf/10.2.0/../../../../m68k-atariextrabrowner-elf/lib/m68000/libc.a(gettimeofday.o)
                0x0000000000033b08                ___gettimeofday
                0x0000000000033b08                _gettimeofday
 .text          0x0000000000033c1c        0x8 /Users/davidebucci/Desktop/Synchronized/Vintage/Computing/Atari/ST/brown/lib/gcc/m68k-atariextrabrowner-elf/10.2.0/../../../../m68k-atariextrabrowner-elf/lib/m68000/libc.a(setlocale.o)
                0x0000000000033c1c                _setlocale
 .text          0x0000000000033c24      0x428 /Users/davidebucci/Desktop/Synchronized/Vintage/Computing/Atari/ST/brown/lib/gcc/m68k-atariextrabrowner-elf/10.2.0/../../../../m68k-atariextrabrowner-elf/lib/m68000/libc.a(fgetpwent_r.o)
                0x0000000000033c24                ___fgetpwent_r
                0x0000000000033c24                _fgetpwent_r
 .text          0x000000000003404c        0xc /Users/davidebucci/Desktop/Synchronized/Vintage/Computing/Atari/ST/brown/lib/gcc/m68k-atariextrabrowner-elf/10.2.0/../../../../m68k-atariextrabrowner-elf/lib/m68000/libc.a(clearerr.o)
                0x000000000003404c                _clearerr
                0x000000000003404c                _clearerr_unlocked
 .text          0x0000000000034058       0x1e /Users/davidebucci/Desktop/Synchronized/Vintage/Computing/Atari/ST/brown/lib/gcc/m68k-atariextrabrowner-elf/10.2.0/../../../../m68k-atariextrabrowner-elf/lib/m68000/libc.a(fprintf.o)
                0x0000000000034058                _fprintf
 *fill*         0x0000000000034076        0x2 4e714e71
 .text          0x0000000000034078       0xa2 /Users/davidebucci/Desktop/Synchronized/Vintage/Computing/Atari/ST/brown/lib/gcc/m68k-atariextrabrowner-elf/10.2.0/../../../../m68k-atariextrabrowner-elf/lib/m68000/libc.a(fputc.o)
                0x0000000000034078                _fputc
                0x0000000000034078                _fputc_unlocked
 *fill*         0x000000000003411a        0x2 4e714e71
 .text          0x000000000003411c      0x192 /Users/davidebucci/Desktop/Synchronized/Vintage/Computing/Atari/ST/brown/lib/gcc/m68k-atariextrabrowner-elf/10.2.0/../../../../m68k-atariextrabrowner-elf/lib/m68000/libc.a(fseek.o)
                0x000000000003411c                _fseek
                0x00000000000342aa                _fseeko
 *fill*         0x00000000000342ae        0x2 4e714e71
 .text          0x00000000000342b0      0x38a /Users/davidebucci/Desktop/Synchronized/Vintage/Computing/Atari/ST/brown/lib/gcc/m68k-atariextrabrowner-elf/10.2.0/../../../../m68k-atariextrabrowner-elf/lib/m68000/libc.a(fwrite.o)
                0x00000000000342b0                _fwrite_unlocked
                0x00000000000342b0                _fwrite
 *fill*         0x000000000003463a        0x2 4e714e71
 .text          0x000000000003463c       0x1e /Users/davidebucci/Desktop/Synchronized/Vintage/Computing/Atari/ST/brown/lib/gcc/m68k-atariextrabrowner-elf/10.2.0/../../../../m68k-atariextrabrowner-elf/lib/m68000/libc.a(sprintf.o)
                0x000000000003463c                _sprintf
 *fill*         0x000000000003465a        0x2 4e714e71
 .text          0x000000000003465c       0xc8 /Users/davidebucci/Desktop/Synchronized/Vintage/Computing/Atari/ST/brown/lib/gcc/m68k-atariextrabrowner-elf/10.2.0/../../../../m68k-atariextrabrowner-elf/lib/m68000/libc.a(ungetc.o)
                0x000000000003465c                _ungetc
 .text          0x0000000000034724     0x3e52 /Users/davidebucci/Desktop/Synchronized/Vintage/Computing/Atari/ST/brown/lib/gcc/m68k-atariextrabrowner-elf/10.2.0/../../../../m68k-atariextrabrowner-elf/lib/m68000/libc.a(vfprintf.o)
                0x0000000000034c76                ___printf_pad
                0x0000000000034cf6                _vfprintf
 *fill*         0x0000000000038576        0x2 4e714e71
 .text          0x0000000000038578       0x6c /Users/davidebucci/Desktop/Synchronized/Vintage/Computing/Atari/ST/brown/lib/gcc/m68k-atariextrabrowner-elf/10.2.0/../../../../m68k-atariextrabrowner-elf/lib/m68000/libc.a(vsprintf.o)
                0x0000000000038578                _vsprintf
 .text          0x00000000000385e4       0x26 /Users/davidebucci/Desktop/Synchronized/Vintage/Computing/Atari/ST/brown/lib/gcc/m68k-atariextrabrowner-elf/10.2.0/../../../../m68k-atariextrabrowner-elf/lib/m68000/libc.a(memchr.o)
                0x00000000000385e4                _memchr
 *fill*         0x000000000003860a        0x2 4e714e71
 .text          0x000000000003860c       0x20 /Users/davidebucci/Desktop/Synchronized/Vintage/Computing/Atari/ST/brown/lib/gcc/m68k-atariextrabrowner-elf/10.2.0/../../../../m68k-atariextrabrowner-elf/lib/m68000/libc.a(mempcpy.o)
                0x000000000003860c                ___mempcpy
                0x000000000003860c                _mempcpy
 .text          0x000000000003862c       0x12 /Users/davidebucci/Desktop/Synchronized/Vintage/Computing/Atari/ST/brown/lib/gcc/m68k-atariextrabrowner-elf/10.2.0/../../../../m68k-atariextrabrowner-elf/lib/m68000/libc.a(strcpy.o)
                0x000000000003862c                _strcpy
 *fill*         0x000000000003863e        0x2 4e714e71
 .text          0x0000000000038640       0x5c /Users/davidebucci/Desktop/Synchronized/Vintage/Computing/Atari/ST/brown/lib/gcc/m68k-atariextrabrowner-elf/10.2.0/../../../../m68k-atariextrabrowner-elf/lib/m68000/libc.a(strerror_r.o)
                0x0000000000038640                _strerror_r
                0x0000000000038640                ___strerror_r
 .text          0x000000000003869c       0x30 /Users/davidebucci/Desktop/Synchronized/Vintage/Computing/Atari/ST/brown/lib/gcc/m68k-atariextrabrowner-elf/10.2.0/../../../../m68k-atariextrabrowner-elf/lib/m68000/libc.a(strnlen.o)
                0x000000000003869c                _strnlen
                0x000000000003869c                ___strnlen
 .text          0x00000000000386cc      0x6b8 /Users/davidebucci/Desktop/Synchronized/Vintage/Computing/Atari/ST/brown/lib/gcc/m68k-atariextrabrowner-elf/10.2.0/../../../../m68k-atariextrabrowner-elf/lib/m68000/libc.a(_itoa.o)
                0x00000000000386cc                __itoa
 .text          0x0000000000038d84        0x8 /Users/davidebucci/Desktop/Synchronized/Vintage/Computing/Atari/ST/brown/lib/gcc/m68k-atariextrabrowner-elf/10.2.0/../../../../m68k-atariextrabrowner-elf/lib/m68000/libc.a(lockfile.o)
                0x0000000000038d84                ___internal_flockfile
                0x0000000000038d84                _flockfile
                0x0000000000038d84                ___flockfile
                0x0000000000038d86                ___funlockfile
                0x0000000000038d86                ___internal_funlockfile
                0x0000000000038d86                _funlockfile
                0x0000000000038d88                _ftrylockfile
                0x0000000000038d88                ___internal_ftrylockfile
                0x0000000000038d88                ___ftrylockfile
 .text          0x0000000000038d8c     0x1a44 /Users/davidebucci/Desktop/Synchronized/Vintage/Computing/Atari/ST/brown/lib/gcc/m68k-atariextrabrowner-elf/10.2.0/../../../../m68k-atariextrabrowner-elf/lib/m68000/libc.a(printf_fp.o)
                0x0000000000038ed8                ___printf_fp
                0x000000000003a784                ___guess_grouping
 .text          0x000000000003a7d0      0xca8 /Users/davidebucci/Desktop/Synchronized/Vintage/Computing/Atari/ST/brown/lib/gcc/m68k-atariextrabrowner-elf/10.2.0/../../../../m68k-atariextrabrowner-elf/lib/m68000/libc.a(printf_fphex.o)
                0x000000000003a7d0                ___printf_fphex
 .text          0x000000000003b478       0x42 /Users/davidebucci/Desktop/Synchronized/Vintage/Computing/Atari/ST/brown/lib/gcc/m68k-atariextrabrowner-elf/10.2.0/../../../../m68k-atariextrabrowner-elf/lib/m68000/libc.a(reg-printf.o)
                0x000000000003b478                _register_printf_function
                0x000000000003b478                ___register_printf_function
 *fill*         0x000000000003b4ba        0x2 4e714e71
 .text          0x000000000003b4bc        0x0 /Users/davidebucci/Desktop/Synchronized/Vintage/Computing/Atari/ST/brown/lib/gcc/m68k-atariextrabrowner-elf/10.2.0/../../../../m68k-atariextrabrowner-elf/lib/m68000/libc.a(fpioconst.o)
 .text          0x000000000003b4bc      0x13a /Users/davidebucci/Desktop/Synchronized/Vintage/Computing/Atari/ST/brown/lib/gcc/m68k-atariextrabrowner-elf/10.2.0/../../../../m68k-atariextrabrowner-elf/lib/m68000/libc.a(strerror.o)
                0x000000000003b4bc                _strerror
 *fill*         0x000000000003b5f6        0x2 4e714e71
 .text          0x000000000003b5f8      0x1dc /Users/davidebucci/Desktop/Synchronized/Vintage/Computing/Atari/ST/brown/lib/gcc/m68k-atariextrabrowner-elf/10.2.0/../../../../m68k-atariextrabrowner-elf/lib/m68000/libc.a(dbl2mpn.o)
                0x000000000003b5f8                ___mpn_extract_double
 .text          0x000000000003b7d4      0x200 /Users/davidebucci/Desktop/Synchronized/Vintage/Computing/Atari/ST/brown/lib/gcc/m68k-atariextrabrowner-elf/10.2.0/../../../../m68k-atariextrabrowner-elf/lib/m68000/libc.a(ldbl2mpn.o)
                0x000000000003b7d4                ___mpn_extract_long_double
 .text          0x000000000003b9d4        0x0 /Users/davidebucci/Desktop/Synchronized/Vintage/Computing/Atari/ST/brown/lib/gcc/m68k-atariextrabrowner-elf/10.2.0/../../../../m68k-atariextrabrowner-elf/lib/m68000/libc.a(mp_clz_tab.o)
 .text          0x000000000003b9d4       0x42 /Users/davidebucci/Desktop/Synchronized/Vintage/Computing/Atari/ST/brown/lib/gcc/m68k-atariextrabrowner-elf/10.2.0/../../../../m68k-atariextrabrowner-elf/lib/m68000/libc.a(mpn-cmp.o)
                0x000000000003b9d4                ___mpn_cmp
 *fill*         0x000000000003ba16        0x2 4e714e71
 .text          0x000000000003ba18      0x782 /Users/davidebucci/Desktop/Synchronized/Vintage/Computing/Atari/ST/brown/lib/gcc/m68k-atariextrabrowner-elf/10.2.0/../../../../m68k-atariextrabrowner-elf/lib/m68000/libc.a(mpn-divrem.o)
                0x000000000003ba18                ___mpn_divrem
 *fill*         0x000000000003c19a        0x2 4e714e71
 .text          0x000000000003c19c       0x5c /Users/davidebucci/Desktop/Synchronized/Vintage/Computing/Atari/ST/brown/lib/gcc/m68k-atariextrabrowner-elf/10.2.0/../../../../m68k-atariextrabrowner-elf/lib/m68000/libc.a(mpn-lshift.o)
                0x000000000003c19c                ___mpn_lshift
 .text          0x000000000003c1f8      0x2ce /Users/davidebucci/Desktop/Synchronized/Vintage/Computing/Atari/ST/brown/lib/gcc/m68k-atariextrabrowner-elf/10.2.0/../../../../m68k-atariextrabrowner-elf/lib/m68000/libc.a(mpn-mul.o)
                0x000000000003c1f8                ___mpn_mul
 *fill*         0x000000000003c4c6        0x2 4e714e71
 .text          0x000000000003c4c8       0x6a /Users/davidebucci/Desktop/Synchronized/Vintage/Computing/Atari/ST/brown/lib/gcc/m68k-atariextrabrowner-elf/10.2.0/../../../../m68k-atariextrabrowner-elf/lib/m68000/libc.a(mpn-mul_1.o)
                0x000000000003c4c8                ___mpn_mul_1
 *fill*         0x000000000003c532        0x2 4e714e71
 .text          0x000000000003c534      0x982 /Users/davidebucci/Desktop/Synchronized/Vintage/Computing/Atari/ST/brown/lib/gcc/m68k-atariextrabrowner-elf/10.2.0/../../../../m68k-atariextrabrowner-elf/lib/m68000/libc.a(mpn-mul_n.o)
                0x000000000003c534                ___mpn_impn_mul_n_basecase
                0x000000000003c630                ___mpn_impn_mul_n
                0x000000000003c9d4                ___mpn_impn_sqr_n_basecase
                0x000000000003caca                ___mpn_impn_sqr_n
                0x000000000003ce22                ___mpn_mul_n
 *fill*         0x000000000003ceb6        0x2 4e714e71
 .text          0x000000000003ceb8       0x54 /Users/davidebucci/Desktop/Synchronized/Vintage/Computing/Atari/ST/brown/lib/gcc/m68k-atariextrabrowner-elf/10.2.0/../../../../m68k-atariextrabrowner-elf/lib/m68000/libc.a(mpn-rshift.o)
                0x000000000003ceb8                ___mpn_rshift
 .text          0x000000000003cf0c       0x54 /Users/davidebucci/Desktop/Synchronized/Vintage/Computing/Atari/ST/brown/lib/gcc/m68k-atariextrabrowner-elf/10.2.0/../../../../m68k-atariextrabrowner-elf/lib/m68000/libc.a(mpn-sub_n.o)
                0x000000000003cf0c                ___mpn_sub_n
 .text          0x000000000003cf60       0x7a /Users/davidebucci/Desktop/Synchronized/Vintage/Computing/Atari/ST/brown/lib/gcc/m68k-atariextrabrowner-elf/10.2.0/../../../../m68k-atariextrabrowner-elf/lib/m68000/libc.a(mpn-submul_1.o)
                0x000000000003cf60                ___mpn_submul_1
 *fill*         0x000000000003cfda        0x2 4e714e71
 .text          0x000000000003cfdc       0x2e /Users/davidebucci/Desktop/Synchronized/Vintage/Computing/Atari/ST/brown/lib/gcc/m68k-atariextrabrowner-elf/10.2.0/../../../../m68k-atariextrabrowner-elf/lib/m68000/libc.a(s_isinf.o)
                0x000000000003cfdc                _isinf
                0x000000000003cfdc                ___isinf
 *fill*         0x000000000003d00a        0x2 4e714e71
 .text          0x000000000003d00c       0x72 /Users/davidebucci/Desktop/Synchronized/Vintage/Computing/Atari/ST/brown/lib/gcc/m68k-atariextrabrowner-elf/10.2.0/../../../../m68k-atariextrabrowner-elf/lib/m68000/libc.a(s_isinfl.o)
                0x000000000003d00c                ___isinfl
                0x000000000003d00c                _isinfl
 *fill*         0x000000000003d07e        0x2 4e714e71
 .text          0x000000000003d080       0x28 /Users/davidebucci/Desktop/Synchronized/Vintage/Computing/Atari/ST/brown/lib/gcc/m68k-atariextrabrowner-elf/10.2.0/../../../../m68k-atariextrabrowner-elf/lib/m68000/libc.a(s_isnan.o)
                0x000000000003d080                _isnan
                0x000000000003d080                ___isnan
 .text          0x000000000003d0a8       0x6e /Users/davidebucci/Desktop/Synchronized/Vintage/Computing/Atari/ST/brown/lib/gcc/m68k-atariextrabrowner-elf/10.2.0/../../../../m68k-atariextrabrowner-elf/lib/m68000/libc.a(s_isnanl.o)
                0x000000000003d0a8                ___isnanl
                0x000000000003d0a8                _isnanl
 *fill*         0x000000000003d116        0x2 4e714e71
 .text          0x000000000003d118        0xc /Users/davidebucci/Desktop/Synchronized/Vintage/Computing/Atari/ST/brown/lib/gcc/m68k-atariextrabrowner-elf/10.2.0/../../../../m68k-atariextrabrowner-elf/lib/m68000/libc.a(s_signbit.o)
                0x000000000003d118                ___signbit
                0x000000000003d118                _signbit
 .text          0x000000000003d124       0x22 /Users/davidebucci/Desktop/Synchronized/Vintage/Computing/Atari/ST/brown/lib/gcc/m68k-atariextrabrowner-elf/10.2.0/../../../../m68k-atariextrabrowner-elf/lib/m68000/libc.a(s_signbitl.o)
                0x000000000003d124                ___signbitl
                0x000000000003d124                _signbitl
 *fill*         0x000000000003d146        0x2 4e714e71
 .text          0x000000000003d148       0x22 /Users/davidebucci/Desktop/Synchronized/Vintage/Computing/Atari/ST/brown/lib/gcc/m68k-atariextrabrowner-elf/10.2.0/../../../../m68k-atariextrabrowner-elf/lib/m68000/libc.a(snprintf.o)
                0x000000000003d148                ___snprintf
                0x000000000003d148                _snprintf
 *fill*         0x000000000003d16a        0x2 4e714e71
 .text          0x000000000003d16c       0xc2 /Users/davidebucci/Desktop/Synchronized/Vintage/Computing/Atari/ST/brown/lib/gcc/m68k-atariextrabrowner-elf/10.2.0/../../../../m68k-atariextrabrowner-elf/lib/m68000/libc.a(vsnprintf.o)
                0x000000000003d184                _vsnprintf
                0x000000000003d184                ___vsnprintf
 *fill*         0x000000000003d22e        0x2 4e714e71
 .text          0x000000000003d230       0x52 /Users/davidebucci/Desktop/Synchronized/Vintage/Computing/Atari/ST/brown/lib/gcc/m68k-atariextrabrowner-elf/10.2.0/../../../../m68k-atariextrabrowner-elf/lib/m68000/libc.a(mpn-add_n.o)
                0x000000000003d230                ___mpn_add_n
 *fill*         0x000000000003d282        0x2 4e714e71
 .text          0x000000000003d284       0x78 /Users/davidebucci/Desktop/Synchronized/Vintage/Computing/Atari/ST/brown/lib/gcc/m68k-atariextrabrowner-elf/10.2.0/../../../../m68k-atariextrabrowner-elf/lib/m68000/libc.a(mpn-addmul_1.o)
                0x000000000003d284                ___mpn_addmul_1
 .text          0x000000000003d2fc       0x7e /Users/davidebucci/Desktop/Synchronized/Vintage/Computing/Atari/ST/brown/lib/gcc/m68k-atariextrabrowner-elf/10.2.0/../../../../m68k-atariextrabrowner-elf/lib/m68000/libc.a(fputs.o)
                0x000000000003d2fc                _fputs
                0x000000000003d2fc                _fputs_unlocked
 *fill*         0x000000000003d37a        0x2 4e714e71
 .text          0x000000000003d37c       0x22 /Users/davidebucci/Desktop/Synchronized/Vintage/Computing/Atari/ST/brown//lib/gcc/m68k-atariextrabrowner-elf/10.2.0/m68000/libgcc.a(_mulsi3.o)
                0x000000000003d37c                ___mulsi3
 *fill*         0x000000000003d39e        0x2 4e714e71
 .text          0x000000000003d3a0       0x5c /Users/davidebucci/Desktop/Synchronized/Vintage/Computing/Atari/ST/brown//lib/gcc/m68k-atariextrabrowner-elf/10.2.0/m68000/libgcc.a(_udivsi3.o)
                0x000000000003d3a0                ___udivsi3
 .text          0x000000000003d3fc       0x2e /Users/davidebucci/Desktop/Synchronized/Vintage/Computing/Atari/ST/brown//lib/gcc/m68k-atariextrabrowner-elf/10.2.0/m68000/libgcc.a(_divsi3.o)
                0x000000000003d3fc                ___divsi3
 *fill*         0x000000000003d42a        0x2 4e714e71
 .text          0x000000000003d42c       0x2e /Users/davidebucci/Desktop/Synchronized/Vintage/Computing/Atari/ST/brown//lib/gcc/m68k-atariextrabrowner-elf/10.2.0/m68000/libgcc.a(_umodsi3.o)
                0x000000000003d42c                ___umodsi3
 *fill*         0x000000000003d45a        0x2 4e714e71
 .text          0x000000000003d45c       0x2e /Users/davidebucci/Desktop/Synchronized/Vintage/Computing/Atari/ST/brown//lib/gcc/m68k-atariextrabrowner-elf/10.2.0/m68000/libgcc.a(_modsi3.o)
                0x000000000003d45c                ___modsi3
 *fill*         0x000000000003d48a        0x2 4e714e71
 .text          0x000000000003d48c      0x9cc /Users/davidebucci/Desktop/Synchronized/Vintage/Computing/Atari/ST/brown//lib/gcc/m68k-atariextrabrowner-elf/10.2.0/m68000/libgcc.a(_double.o)
                0x000000000003d4e6                ___subdf3
                0x000000000003d4ec                ___adddf3
                0x000000000003d882                ___muldf3
                0x000000000003da30                ___divdf3
                0x000000000003dca4                ___negdf2
                0x000000000003dd02                ___cmpdf2_internal
                0x000000000003ddd2                ___cmpdf2
 .text          0x000000000003de58       0x6a /Users/davidebucci/Desktop/Synchronized/Vintage/Computing/Atari/ST/brown//lib/gcc/m68k-atariextrabrowner-elf/10.2.0/m68000/libgcc.a(_floatex.o)
                0x000000000003de58                ___clear_sticky_bit
                0x000000000003de66                $_exception_handler
 *fill*         0x000000000003dec2        0x2 4e714e71
 .text          0x000000000003dec4       0x22 /Users/davidebucci/Desktop/Synchronized/Vintage/Computing/Atari/ST/brown//lib/gcc/m68k-atariextrabrowner-elf/10.2.0/m68000/libgcc.a(_ltdf2.o)
                0x000000000003dec4                ___ltdf2
 *fill*         0x000000000003dee6        0x2 4e714e71
 .text          0x000000000003dee8      0x530 /Users/davidebucci/Desktop/Synchronized/Vintage/Computing/Atari/ST/brown//lib/gcc/m68k-atariextrabrowner-elf/10.2.0/m68000/libgcc.a(fpgnulib.o)
                0x000000000003df96                ___unordsf2
                0x000000000003dfec                ___unorddf2
                0x000000000003e05c                ___floatunsidf
                0x000000000003e0d2                ___floatsidf
                0x000000000003e0e2                ___floatunsisf
                0x000000000003e15c                ___floatsisf
                0x000000000003e178                ___extendsfdf2
                0x000000000003e1ec                ___truncdfsf2
                0x000000000003e2f4                ___fixdfsi
                0x000000000003e384                ___fixsfsi
 .text          0x000000000003e418      0x912 /Users/davidebucci/Desktop/Synchronized/Vintage/Computing/Atari/ST/brown//lib/gcc/m68k-atariextrabrowner-elf/10.2.0/m68000/libgcc.a(xfgnulib.o)
                0x000000000003e418                ___unordxf2
                0x000000000003e4ec                ___extenddfxf2
                0x000000000003e59e                ___truncxfdf2
                0x000000000003e682                ___extendsfxf2
                0x000000000003e73c                ___truncxfsf2
                0x000000000003e83a                ___floatsixf
                0x000000000003e880                ___floatunsixf
                0x000000000003e8c6                ___fixxfsi
                0x000000000003e8e8                ___addxf3
                0x000000000003e95e                ___subxf3
                0x000000000003e9d4                ___mulxf3
                0x000000000003ea4a                ___divxf3
                0x000000000003eac0                ___negxf2
                0x000000000003eb16                ___cmpxf2
                0x000000000003eb62                ___eqxf2
                0x000000000003ebae                ___nexf2
                0x000000000003ebfa                ___ltxf2
                0x000000000003ec46                ___lexf2
                0x000000000003ec92                ___gtxf2
                0x000000000003ecde                ___gexf2
 *fill*         0x000000000003ed2a        0x2 4e714e71
 .text          0x000000000003ed2c       0x24 /Users/davidebucci/Desktop/Synchronized/Vintage/Computing/Atari/ST/brown/lib/gcc/m68k-atariextrabrowner-elf/10.2.0/m68000/crtend.o
 *(.gnu.warning)

.fini           0x000000000003ed50        0x6
 *(SORT_NONE(.fini))
 .fini          0x000000000003ed50        0x6 /Users/davidebucci/Desktop/Synchronized/Vintage/Computing/Atari/ST/brown/lib/gcc/m68k-atariextrabrowner-elf/10.2.0/m68000/crtbegin.o
                [!provide]                        PROVIDE (__etext = .)
                0x000000000003ed56                PROVIDE (_etext = .)
                [!provide]                        PROVIDE (etext = .)

.rodata         0x000000000003ed56     0x836c
 *(.rodata .rodata.* .gnu.linkonce.r.*)
 .rodata.writesameln.constprop.0.str1.1
                0x000000000003ed56      0xcb1 /var/folders/sk/pxzc9l1n12xfhw7mpgdgdkdc0000gn/T//tdttr40.elf.LVtvPN.ltrans0.ltrans.o
                                          0x2 (size before relaxing)
 .rodata.writesameln.constprop.1.str1.1
                0x000000000003ed56      0xcb1 /var/folders/sk/pxzc9l1n12xfhw7mpgdgdkdc0000gn/T//tdttr40.elf.LVtvPN.ltrans0.ltrans.o
                                          0x2 (size before relaxing)
 .rodata.loadgame.constprop.0.str1.1
                0x000000000003ed56       0x59 /var/folders/sk/pxzc9l1n12xfhw7mpgdgdkdc0000gn/T//tdttr40.elf.LVtvPN.ltrans0.ltrans.o
                                         0x5b (size before relaxing)
 .rodata.game_cycle.str1.1
                0x000000000003edaf       0x46 /var/folders/sk/pxzc9l1n12xfhw7mpgdgdkdc0000gn/T//tdttr40.elf.LVtvPN.ltrans0.ltrans.o
                                         0x48 (size before relaxing)
 .rodata.short_d100
                0x000000000003edf5        0x8 /var/folders/sk/pxzc9l1n12xfhw7mpgdgdkdc0000gn/T//tdttr40.elf.LVtvPN.ltrans0.ltrans.o
 .rodata.long_d100
                0x000000000003edfd      0x113 /var/folders/sk/pxzc9l1n12xfhw7mpgdgdkdc0000gn/T//tdttr40.elf.LVtvPN.ltrans0.ltrans.o
 .rodata.short_d64
                0x000000000003ef10        0xa /var/folders/sk/pxzc9l1n12xfhw7mpgdgdkdc0000gn/T//tdttr40.elf.LVtvPN.ltrans0.ltrans.o
 .rodata.long_d64
                0x000000000003ef1a       0x6a /var/folders/sk/pxzc9l1n12xfhw7mpgdgdkdc0000gn/T//tdttr40.elf.LVtvPN.ltrans0.ltrans.o
 .rodata.short_d63
                0x000000000003ef84        0x5 /var/folders/sk/pxzc9l1n12xfhw7mpgdgdkdc0000gn/T//tdttr40.elf.LVtvPN.ltrans0.ltrans.o
 .rodata.long_d63
                0x000000000003ef89       0x10 /var/folders/sk/pxzc9l1n12xfhw7mpgdgdkdc0000gn/T//tdttr40.elf.LVtvPN.ltrans0.ltrans.o
 .rodata.short_d62
                0x000000000003ef99        0x8 /var/folders/sk/pxzc9l1n12xfhw7mpgdgdkdc0000gn/T//tdttr40.elf.LVtvPN.ltrans0.ltrans.o
 .rodata.long_d62
                0x000000000003efa1       0x2a /var/folders/sk/pxzc9l1n12xfhw7mpgdgdkdc0000gn/T//tdttr40.elf.LVtvPN.ltrans0.ltrans.o
 .rodata.short_d61
                0x000000000003efcb        0x6 /var/folders/sk/pxzc9l1n12xfhw7mpgdgdkdc0000gn/T//tdttr40.elf.LVtvPN.ltrans0.ltrans.o
 .rodata.long_d61
                0x000000000003efd1       0x5a /var/folders/sk/pxzc9l1n12xfhw7mpgdgdkdc0000gn/T//tdttr40.elf.LVtvPN.ltrans0.ltrans.o
 .rodata.short_d60
                0x000000000003f02b        0x7 /var/folders/sk/pxzc9l1n12xfhw7mpgdgdkdc0000gn/T//tdttr40.elf.LVtvPN.ltrans0.ltrans.o
 .rodata.long_d60
                0x000000000003f032       0x3d /var/folders/sk/pxzc9l1n12xfhw7mpgdgdkdc0000gn/T//tdttr40.elf.LVtvPN.ltrans0.ltrans.o
 .rodata.short_d59
                0x000000000003f06f        0x9 /var/folders/sk/pxzc9l1n12xfhw7mpgdgdkdc0000gn/T//tdttr40.elf.LVtvPN.ltrans0.ltrans.o
 .rodata.long_d59
                0x000000000003f078       0x4e /var/folders/sk/pxzc9l1n12xfhw7mpgdgdkdc0000gn/T//tdttr40.elf.LVtvPN.ltrans0.ltrans.o
 .rodata.short_d58
                0x000000000003f0c6        0x8 /var/folders/sk/pxzc9l1n12xfhw7mpgdgdkdc0000gn/T//tdttr40.elf.LVtvPN.ltrans0.ltrans.o
 .rodata.long_d58
                0x000000000003f0ce       0x66 /var/folders/sk/pxzc9l1n12xfhw7mpgdgdkdc0000gn/T//tdttr40.elf.LVtvPN.ltrans0.ltrans.o
 .rodata.short_d57
                0x000000000003f134        0x5 /var/folders/sk/pxzc9l1n12xfhw7mpgdgdkdc0000gn/T//tdttr40.elf.LVtvPN.ltrans0.ltrans.o
 .rodata.long_d57
                0x000000000003f139       0x15 /var/folders/sk/pxzc9l1n12xfhw7mpgdgdkdc0000gn/T//tdttr40.elf.LVtvPN.ltrans0.ltrans.o
 .rodata.short_d56
                0x000000000003f14e        0x8 /var/folders/sk/pxzc9l1n12xfhw7mpgdgdkdc0000gn/T//tdttr40.elf.LVtvPN.ltrans0.ltrans.o
 .rodata.long_d56
                0x000000000003f156       0xee /var/folders/sk/pxzc9l1n12xfhw7mpgdgdkdc0000gn/T//tdttr40.elf.LVtvPN.ltrans0.ltrans.o
 .rodata.short_d55
                0x000000000003f244        0x8 /var/folders/sk/pxzc9l1n12xfhw7mpgdgdkdc0000gn/T//tdttr40.elf.LVtvPN.ltrans0.ltrans.o
 .rodata.long_d55
                0x000000000003f24c       0x36 /var/folders/sk/pxzc9l1n12xfhw7mpgdgdkdc0000gn/T//tdttr40.elf.LVtvPN.ltrans0.ltrans.o
 .rodata.short_d54
                0x000000000003f282        0x7 /var/folders/sk/pxzc9l1n12xfhw7mpgdgdkdc0000gn/T//tdttr40.elf.LVtvPN.ltrans0.ltrans.o
 .rodata.long_d54
                0x000000000003f289        0xc /var/folders/sk/pxzc9l1n12xfhw7mpgdgdkdc0000gn/T//tdttr40.elf.LVtvPN.ltrans0.ltrans.o
 .rodata.short_d53
                0x000000000003f295        0x7 /var/folders/sk/pxzc9l1n12xfhw7mpgdgdkdc0000gn/T//tdttr40.elf.LVtvPN.ltrans0.ltrans.o
 .rodata.long_d53
                0x000000000003f29c        0xc /var/folders/sk/pxzc9l1n12xfhw7mpgdgdkdc0000gn/T//tdttr40.elf.LVtvPN.ltrans0.ltrans.o
 .rodata.short_d52
                0x000000000003f2a8        0xc /var/folders/sk/pxzc9l1n12xfhw7mpgdgdkdc0000gn/T//tdttr40.elf.LVtvPN.ltrans0.ltrans.o
 .rodata.long_d52
                0x000000000003f2b4       0x1d /var/folders/sk/pxzc9l1n12xfhw7mpgdgdkdc0000gn/T//tdttr40.elf.LVtvPN.ltrans0.ltrans.o
 .rodata.short_d51
                0x000000000003f2d1        0x7 /var/folders/sk/pxzc9l1n12xfhw7mpgdgdkdc0000gn/T//tdttr40.elf.LVtvPN.ltrans0.ltrans.o
 .rodata.long_d51
                0x000000000003f2d8       0x17 /var/folders/sk/pxzc9l1n12xfhw7mpgdgdkdc0000gn/T//tdttr40.elf.LVtvPN.ltrans0.ltrans.o
 .rodata.short_d50
                0x000000000003f2ef        0x7 /var/folders/sk/pxzc9l1n12xfhw7mpgdgdkdc0000gn/T//tdttr40.elf.LVtvPN.ltrans0.ltrans.o
 .rodata.long_d50
                0x000000000003f2f6        0xc /var/folders/sk/pxzc9l1n12xfhw7mpgdgdkdc0000gn/T//tdttr40.elf.LVtvPN.ltrans0.ltrans.o
 .rodata.short_d49
                0x000000000003f302        0x7 /var/folders/sk/pxzc9l1n12xfhw7mpgdgdkdc0000gn/T//tdttr40.elf.LVtvPN.ltrans0.ltrans.o
 .rodata.long_d49
                0x000000000003f309        0xc /var/folders/sk/pxzc9l1n12xfhw7mpgdgdkdc0000gn/T//tdttr40.elf.LVtvPN.ltrans0.ltrans.o
 .rodata.short_d48
                0x000000000003f315        0x7 /var/folders/sk/pxzc9l1n12xfhw7mpgdgdkdc0000gn/T//tdttr40.elf.LVtvPN.ltrans0.ltrans.o
 .rodata.long_d48
                0x000000000003f31c        0xc /var/folders/sk/pxzc9l1n12xfhw7mpgdgdkdc0000gn/T//tdttr40.elf.LVtvPN.ltrans0.ltrans.o
 .rodata.short_d47
                0x000000000003f328        0x5 /var/folders/sk/pxzc9l1n12xfhw7mpgdgdkdc0000gn/T//tdttr40.elf.LVtvPN.ltrans0.ltrans.o
 .rodata.long_d47
                0x000000000003f32d       0x26 /var/folders/sk/pxzc9l1n12xfhw7mpgdgdkdc0000gn/T//tdttr40.elf.LVtvPN.ltrans0.ltrans.o
 .rodata.short_d46
                0x000000000003f353        0x7 /var/folders/sk/pxzc9l1n12xfhw7mpgdgdkdc0000gn/T//tdttr40.elf.LVtvPN.ltrans0.ltrans.o
 .rodata.long_d46
                0x000000000003f35a       0x4e /var/folders/sk/pxzc9l1n12xfhw7mpgdgdkdc0000gn/T//tdttr40.elf.LVtvPN.ltrans0.ltrans.o
 .rodata.short_d45
                0x000000000003f3a8        0x5 /var/folders/sk/pxzc9l1n12xfhw7mpgdgdkdc0000gn/T//tdttr40.elf.LVtvPN.ltrans0.ltrans.o
 .rodata.long_d45
                0x000000000003f3ad       0x26 /var/folders/sk/pxzc9l1n12xfhw7mpgdgdkdc0000gn/T//tdttr40.elf.LVtvPN.ltrans0.ltrans.o
 .rodata.short_d44
                0x000000000003f3d3        0x5 /var/folders/sk/pxzc9l1n12xfhw7mpgdgdkdc0000gn/T//tdttr40.elf.LVtvPN.ltrans0.ltrans.o
 .rodata.long_d44
                0x000000000003f3d8       0x26 /var/folders/sk/pxzc9l1n12xfhw7mpgdgdkdc0000gn/T//tdttr40.elf.LVtvPN.ltrans0.ltrans.o
 .rodata.short_d43
                0x000000000003f3fe        0x8 /var/folders/sk/pxzc9l1n12xfhw7mpgdgdkdc0000gn/T//tdttr40.elf.LVtvPN.ltrans0.ltrans.o
 .rodata.long_d43
                0x000000000003f406       0x7b /var/folders/sk/pxzc9l1n12xfhw7mpgdgdkdc0000gn/T//tdttr40.elf.LVtvPN.ltrans0.ltrans.o
 .rodata.short_d42
                0x000000000003f481        0x5 /var/folders/sk/pxzc9l1n12xfhw7mpgdgdkdc0000gn/T//tdttr40.elf.LVtvPN.ltrans0.ltrans.o
 .rodata.long_d42
                0x000000000003f486        0x5 /var/folders/sk/pxzc9l1n12xfhw7mpgdgdkdc0000gn/T//tdttr40.elf.LVtvPN.ltrans0.ltrans.o
 .rodata.short_d41
                0x000000000003f48b        0x8 /var/folders/sk/pxzc9l1n12xfhw7mpgdgdkdc0000gn/T//tdttr40.elf.LVtvPN.ltrans0.ltrans.o
 .rodata.long_d41
                0x000000000003f493       0x53 /var/folders/sk/pxzc9l1n12xfhw7mpgdgdkdc0000gn/T//tdttr40.elf.LVtvPN.ltrans0.ltrans.o
 .rodata.short_d40
                0x000000000003f4e6        0x8 /var/folders/sk/pxzc9l1n12xfhw7mpgdgdkdc0000gn/T//tdttr40.elf.LVtvPN.ltrans0.ltrans.o
 .rodata.long_d40
                0x000000000003f4ee       0xa3 /var/folders/sk/pxzc9l1n12xfhw7mpgdgdkdc0000gn/T//tdttr40.elf.LVtvPN.ltrans0.ltrans.o
 .rodata.short_d39
                0x000000000003f591        0x6 /var/folders/sk/pxzc9l1n12xfhw7mpgdgdkdc0000gn/T//tdttr40.elf.LVtvPN.ltrans0.ltrans.o
 .rodata.long_d39
                0x000000000003f597        0x6 /var/folders/sk/pxzc9l1n12xfhw7mpgdgdkdc0000gn/T//tdttr40.elf.LVtvPN.ltrans0.ltrans.o
 .rodata.short_d38
                0x000000000003f59d        0x7 /var/folders/sk/pxzc9l1n12xfhw7mpgdgdkdc0000gn/T//tdttr40.elf.LVtvPN.ltrans0.ltrans.o
 .rodata.long_d38
                0x000000000003f5a4       0x29 /var/folders/sk/pxzc9l1n12xfhw7mpgdgdkdc0000gn/T//tdttr40.elf.LVtvPN.ltrans0.ltrans.o
 .rodata.short_d37
                0x000000000003f5cd        0x7 /var/folders/sk/pxzc9l1n12xfhw7mpgdgdkdc0000gn/T//tdttr40.elf.LVtvPN.ltrans0.ltrans.o
 .rodata.long_d37
                0x000000000003f5d4       0x76 /var/folders/sk/pxzc9l1n12xfhw7mpgdgdkdc0000gn/T//tdttr40.elf.LVtvPN.ltrans0.ltrans.o
 .rodata.short_d36
                0x000000000003f64a        0x6 /var/folders/sk/pxzc9l1n12xfhw7mpgdgdkdc0000gn/T//tdttr40.elf.LVtvPN.ltrans0.ltrans.o
 .rodata.long_d36
                0x000000000003f650       0x13 /var/folders/sk/pxzc9l1n12xfhw7mpgdgdkdc0000gn/T//tdttr40.elf.LVtvPN.ltrans0.ltrans.o
 .rodata.short_d35
                0x000000000003f663        0x6 /var/folders/sk/pxzc9l1n12xfhw7mpgdgdkdc0000gn/T//tdttr40.elf.LVtvPN.ltrans0.ltrans.o
 .rodata.long_d35
                0x000000000003f669       0x3d /var/folders/sk/pxzc9l1n12xfhw7mpgdgdkdc0000gn/T//tdttr40.elf.LVtvPN.ltrans0.ltrans.o
 .rodata.short_d34
                0x000000000003f6a6        0x6 /var/folders/sk/pxzc9l1n12xfhw7mpgdgdkdc0000gn/T//tdttr40.elf.LVtvPN.ltrans0.ltrans.o
 .rodata.long_d34
                0x000000000003f6ac       0x1a /var/folders/sk/pxzc9l1n12xfhw7mpgdgdkdc0000gn/T//tdttr40.elf.LVtvPN.ltrans0.ltrans.o
 .rodata.short_d33
                0x000000000003f6c6        0xd /var/folders/sk/pxzc9l1n12xfhw7mpgdgdkdc0000gn/T//tdttr40.elf.LVtvPN.ltrans0.ltrans.o
 .rodata.long_d33
                0x000000000003f6d3       0x29 /var/folders/sk/pxzc9l1n12xfhw7mpgdgdkdc0000gn/T//tdttr40.elf.LVtvPN.ltrans0.ltrans.o
 .rodata.short_d32
                0x000000000003f6fc        0xc /var/folders/sk/pxzc9l1n12xfhw7mpgdgdkdc0000gn/T//tdttr40.elf.LVtvPN.ltrans0.ltrans.o
 .rodata.long_d32
                0x000000000003f708       0x36 /var/folders/sk/pxzc9l1n12xfhw7mpgdgdkdc0000gn/T//tdttr40.elf.LVtvPN.ltrans0.ltrans.o
 .rodata.short_d31
                0x000000000003f73e        0x9 /var/folders/sk/pxzc9l1n12xfhw7mpgdgdkdc0000gn/T//tdttr40.elf.LVtvPN.ltrans0.ltrans.o
 .rodata.long_d31
                0x000000000003f747       0x4d /var/folders/sk/pxzc9l1n12xfhw7mpgdgdkdc0000gn/T//tdttr40.elf.LVtvPN.ltrans0.ltrans.o
 .rodata.short_d30
                0x000000000003f794        0x9 /var/folders/sk/pxzc9l1n12xfhw7mpgdgdkdc0000gn/T//tdttr40.elf.LVtvPN.ltrans0.ltrans.o
 .rodata.long_d30
                0x000000000003f79d       0x42 /var/folders/sk/pxzc9l1n12xfhw7mpgdgdkdc0000gn/T//tdttr40.elf.LVtvPN.ltrans0.ltrans.o
 .rodata.short_d29
                0x000000000003f7df        0x9 /var/folders/sk/pxzc9l1n12xfhw7mpgdgdkdc0000gn/T//tdttr40.elf.LVtvPN.ltrans0.ltrans.o
 .rodata.long_d29
                0x000000000003f7e8       0x32 /var/folders/sk/pxzc9l1n12xfhw7mpgdgdkdc0000gn/T//tdttr40.elf.LVtvPN.ltrans0.ltrans.o
 .rodata.short_d28
                0x000000000003f81a        0x7 /var/folders/sk/pxzc9l1n12xfhw7mpgdgdkdc0000gn/T//tdttr40.elf.LVtvPN.ltrans0.ltrans.o
 .rodata.long_d28
                0x000000000003f821       0x55 /var/folders/sk/pxzc9l1n12xfhw7mpgdgdkdc0000gn/T//tdttr40.elf.LVtvPN.ltrans0.ltrans.o
 .rodata.short_d27
                0x000000000003f876        0xa /var/folders/sk/pxzc9l1n12xfhw7mpgdgdkdc0000gn/T//tdttr40.elf.LVtvPN.ltrans0.ltrans.o
 .rodata.long_d27
                0x000000000003f880       0x35 /var/folders/sk/pxzc9l1n12xfhw7mpgdgdkdc0000gn/T//tdttr40.elf.LVtvPN.ltrans0.ltrans.o
 .rodata.short_d26
                0x000000000003f8b5        0xe /var/folders/sk/pxzc9l1n12xfhw7mpgdgdkdc0000gn/T//tdttr40.elf.LVtvPN.ltrans0.ltrans.o
 .rodata.long_d26
                0x000000000003f8c3       0x52 /var/folders/sk/pxzc9l1n12xfhw7mpgdgdkdc0000gn/T//tdttr40.elf.LVtvPN.ltrans0.ltrans.o
 .rodata.short_d25
                0x000000000003f915        0x6 /var/folders/sk/pxzc9l1n12xfhw7mpgdgdkdc0000gn/T//tdttr40.elf.LVtvPN.ltrans0.ltrans.o
 .rodata.long_d25
                0x000000000003f91b       0x61 /var/folders/sk/pxzc9l1n12xfhw7mpgdgdkdc0000gn/T//tdttr40.elf.LVtvPN.ltrans0.ltrans.o
 .rodata.short_d24
                0x000000000003f97c        0xa /var/folders/sk/pxzc9l1n12xfhw7mpgdgdkdc0000gn/T//tdttr40.elf.LVtvPN.ltrans0.ltrans.o
 .rodata.long_d24
                0x000000000003f986       0x34 /var/folders/sk/pxzc9l1n12xfhw7mpgdgdkdc0000gn/T//tdttr40.elf.LVtvPN.ltrans0.ltrans.o
 .rodata.short_d23
                0x000000000003f9ba        0xe /var/folders/sk/pxzc9l1n12xfhw7mpgdgdkdc0000gn/T//tdttr40.elf.LVtvPN.ltrans0.ltrans.o
 .rodata.long_d23
                0x000000000003f9c8       0x47 /var/folders/sk/pxzc9l1n12xfhw7mpgdgdkdc0000gn/T//tdttr40.elf.LVtvPN.ltrans0.ltrans.o
 .rodata.short_d22
                0x000000000003fa0f        0x9 /var/folders/sk/pxzc9l1n12xfhw7mpgdgdkdc0000gn/T//tdttr40.elf.LVtvPN.ltrans0.ltrans.o
 .rodata.long_d22
                0x000000000003fa18       0xa0 /var/folders/sk/pxzc9l1n12xfhw7mpgdgdkdc0000gn/T//tdttr40.elf.LVtvPN.ltrans0.ltrans.o
 .rodata.short_d21
                0x000000000003fab8        0x7 /var/folders/sk/pxzc9l1n12xfhw7mpgdgdkdc0000gn/T//tdttr40.elf.LVtvPN.ltrans0.ltrans.o
 .rodata.long_d21
                0x000000000003fabf       0x40 /var/folders/sk/pxzc9l1n12xfhw7mpgdgdkdc0000gn/T//tdttr40.elf.LVtvPN.ltrans0.ltrans.o
 .rodata.short_d20
                0x000000000003faff        0xb /var/folders/sk/pxzc9l1n12xfhw7mpgdgdkdc0000gn/T//tdttr40.elf.LVtvPN.ltrans0.ltrans.o
 .rodata.long_d20
                0x000000000003fb0a       0x92 /var/folders/sk/pxzc9l1n12xfhw7mpgdgdkdc0000gn/T//tdttr40.elf.LVtvPN.ltrans0.ltrans.o
 .rodata.short_d19
                0x000000000003fb9c        0xc /var/folders/sk/pxzc9l1n12xfhw7mpgdgdkdc0000gn/T//tdttr40.elf.LVtvPN.ltrans0.ltrans.o
 .rodata.long_d19
                0x000000000003fba8       0x6e /var/folders/sk/pxzc9l1n12xfhw7mpgdgdkdc0000gn/T//tdttr40.elf.LVtvPN.ltrans0.ltrans.o
 .rodata.short_d18
                0x000000000003fc16       0x13 /var/folders/sk/pxzc9l1n12xfhw7mpgdgdkdc0000gn/T//tdttr40.elf.LVtvPN.ltrans0.ltrans.o
 .rodata.long_d18
                0x000000000003fc29       0x55 /var/folders/sk/pxzc9l1n12xfhw7mpgdgdkdc0000gn/T//tdttr40.elf.LVtvPN.ltrans0.ltrans.o
 .rodata.short_d17
                0x000000000003fc7e        0xd /var/folders/sk/pxzc9l1n12xfhw7mpgdgdkdc0000gn/T//tdttr40.elf.LVtvPN.ltrans0.ltrans.o
 .rodata.long_d17
                0x000000000003fc8b       0x51 /var/folders/sk/pxzc9l1n12xfhw7mpgdgdkdc0000gn/T//tdttr40.elf.LVtvPN.ltrans0.ltrans.o
 .rodata.short_d16
                0x000000000003fcdc        0x4 /var/folders/sk/pxzc9l1n12xfhw7mpgdgdkdc0000gn/T//tdttr40.elf.LVtvPN.ltrans0.ltrans.o
 .rodata.long_d16
                0x000000000003fce0       0xd9 /var/folders/sk/pxzc9l1n12xfhw7mpgdgdkdc0000gn/T//tdttr40.elf.LVtvPN.ltrans0.ltrans.o
 .rodata.short_d15
                0x000000000003fdb9        0x8 /var/folders/sk/pxzc9l1n12xfhw7mpgdgdkdc0000gn/T//tdttr40.elf.LVtvPN.ltrans0.ltrans.o
 .rodata.long_d15
                0x000000000003fdc1       0x31 /var/folders/sk/pxzc9l1n12xfhw7mpgdgdkdc0000gn/T//tdttr40.elf.LVtvPN.ltrans0.ltrans.o
 .rodata.short_d14
                0x000000000003fdf2        0x5 /var/folders/sk/pxzc9l1n12xfhw7mpgdgdkdc0000gn/T//tdttr40.elf.LVtvPN.ltrans0.ltrans.o
 .rodata.long_d14
                0x000000000003fdf7       0x12 /var/folders/sk/pxzc9l1n12xfhw7mpgdgdkdc0000gn/T//tdttr40.elf.LVtvPN.ltrans0.ltrans.o
 .rodata.short_d13
                0x000000000003fe09        0x5 /var/folders/sk/pxzc9l1n12xfhw7mpgdgdkdc0000gn/T//tdttr40.elf.LVtvPN.ltrans0.ltrans.o
 .rodata.long_d13
                0x000000000003fe0e       0x2d /var/folders/sk/pxzc9l1n12xfhw7mpgdgdkdc0000gn/T//tdttr40.elf.LVtvPN.ltrans0.ltrans.o
 .rodata.short_d12
                0x000000000003fe3b        0x5 /var/folders/sk/pxzc9l1n12xfhw7mpgdgdkdc0000gn/T//tdttr40.elf.LVtvPN.ltrans0.ltrans.o
 .rodata.long_d12
                0x000000000003fe40       0x73 /var/folders/sk/pxzc9l1n12xfhw7mpgdgdkdc0000gn/T//tdttr40.elf.LVtvPN.ltrans0.ltrans.o
 .rodata.short_d11
                0x000000000003feb3        0x6 /var/folders/sk/pxzc9l1n12xfhw7mpgdgdkdc0000gn/T//tdttr40.elf.LVtvPN.ltrans0.ltrans.o
 .rodata.long_d11
                0x000000000003feb9       0x34 /var/folders/sk/pxzc9l1n12xfhw7mpgdgdkdc0000gn/T//tdttr40.elf.LVtvPN.ltrans0.ltrans.o
 .rodata.short_d10
                0x000000000003feed        0xc /var/folders/sk/pxzc9l1n12xfhw7mpgdgdkdc0000gn/T//tdttr40.elf.LVtvPN.ltrans0.ltrans.o
 .rodata.long_d10
                0x000000000003fef9       0x83 /var/folders/sk/pxzc9l1n12xfhw7mpgdgdkdc0000gn/T//tdttr40.elf.LVtvPN.ltrans0.ltrans.o
 .rodata.short_d9
                0x000000000003ff7c        0x6 /var/folders/sk/pxzc9l1n12xfhw7mpgdgdkdc0000gn/T//tdttr40.elf.LVtvPN.ltrans0.ltrans.o
 .rodata.long_d9
                0x000000000003ff82       0xf4 /var/folders/sk/pxzc9l1n12xfhw7mpgdgdkdc0000gn/T//tdttr40.elf.LVtvPN.ltrans0.ltrans.o
 .rodata.short_d8
                0x0000000000040076        0x7 /var/folders/sk/pxzc9l1n12xfhw7mpgdgdkdc0000gn/T//tdttr40.elf.LVtvPN.ltrans0.ltrans.o
 .rodata.long_d8
                0x000000000004007d       0x29 /var/folders/sk/pxzc9l1n12xfhw7mpgdgdkdc0000gn/T//tdttr40.elf.LVtvPN.ltrans0.ltrans.o
 .rodata.short_d7
                0x00000000000400a6        0x5 /var/folders/sk/pxzc9l1n12xfhw7mpgdgdkdc0000gn/T//tdttr40.elf.LVtvPN.ltrans0.ltrans.o
 .rodata.long_d7
                0x00000000000400ab       0x36 /var/folders/sk/pxzc9l1n12xfhw7mpgdgdkdc0000gn/T//tdttr40.elf.LVtvPN.ltrans0.ltrans.o
 .rodata.short_d6
                0x00000000000400e1        0xa /var/folders/sk/pxzc9l1n12xfhw7mpgdgdkdc0000gn/T//tdttr40.elf.LVtvPN.ltrans0.ltrans.o
 .rodata.long_d6
                0x00000000000400eb       0xde /var/folders/sk/pxzc9l1n12xfhw7mpgdgdkdc0000gn/T//tdttr40.elf.LVtvPN.ltrans0.ltrans.o
 .rodata.short_d5
                0x00000000000401c9        0x7 /var/folders/sk/pxzc9l1n12xfhw7mpgdgdkdc0000gn/T//tdttr40.elf.LVtvPN.ltrans0.ltrans.o
 .rodata.long_d5
                0x00000000000401d0       0x83 /var/folders/sk/pxzc9l1n12xfhw7mpgdgdkdc0000gn/T//tdttr40.elf.LVtvPN.ltrans0.ltrans.o
 .rodata.short_d4
                0x0000000000040253        0xb /var/folders/sk/pxzc9l1n12xfhw7mpgdgdkdc0000gn/T//tdttr40.elf.LVtvPN.ltrans0.ltrans.o
 .rodata.long_d4
                0x000000000004025e       0x3c /var/folders/sk/pxzc9l1n12xfhw7mpgdgdkdc0000gn/T//tdttr40.elf.LVtvPN.ltrans0.ltrans.o
 .rodata.short_d3
                0x000000000004029a        0x6 /var/folders/sk/pxzc9l1n12xfhw7mpgdgdkdc0000gn/T//tdttr40.elf.LVtvPN.ltrans0.ltrans.o
 .rodata.long_d3
                0x00000000000402a0       0x92 /var/folders/sk/pxzc9l1n12xfhw7mpgdgdkdc0000gn/T//tdttr40.elf.LVtvPN.ltrans0.ltrans.o
 .rodata.short_d2
                0x0000000000040332        0x9 /var/folders/sk/pxzc9l1n12xfhw7mpgdgdkdc0000gn/T//tdttr40.elf.LVtvPN.ltrans0.ltrans.o
 .rodata.long_d2
                0x000000000004033b       0xa9 /var/folders/sk/pxzc9l1n12xfhw7mpgdgdkdc0000gn/T//tdttr40.elf.LVtvPN.ltrans0.ltrans.o
 .rodata.short_d1
                0x00000000000403e4        0x6 /var/folders/sk/pxzc9l1n12xfhw7mpgdgdkdc0000gn/T//tdttr40.elf.LVtvPN.ltrans0.ltrans.o
 .rodata.long_d1
                0x00000000000403ea       0x8a /var/folders/sk/pxzc9l1n12xfhw7mpgdgdkdc0000gn/T//tdttr40.elf.LVtvPN.ltrans0.ltrans.o
 .rodata.dictionary
                0x0000000000040474      0xbf4 /var/folders/sk/pxzc9l1n12xfhw7mpgdgdkdc0000gn/T//tdttr40.elf.LVtvPN.ltrans0.ltrans.o
 .rodata.dir    0x0000000000041068       0x18 /var/folders/sk/pxzc9l1n12xfhw7mpgdgdkdc0000gn/T//tdttr40.elf.LVtvPN.ltrans0.ltrans.o
 .rodata.huftree
                0x0000000000041080      0x1cb /var/folders/sk/pxzc9l1n12xfhw7mpgdgdkdc0000gn/T//tdttr40.elf.LVtvPN.ltrans0.ltrans.o
 *fill*         0x000000000004124b        0x1 
 .rodata.original_position
                0x000000000004124c       0x60 /var/folders/sk/pxzc9l1n12xfhw7mpgdgdkdc0000gn/T//tdttr40.elf.LVtvPN.ltrans0.ltrans.o
 .rodata.original_connections
                0x00000000000412ac      0x186 /var/folders/sk/pxzc9l1n12xfhw7mpgdgdkdc0000gn/T//tdttr40.elf.LVtvPN.ltrans0.ltrans.o
 .rodata.str1.1
                0x0000000000041432       0xac /Users/davidebucci/Desktop/Synchronized/Vintage/Computing/Atari/ST/brown/lib/gcc/m68k-atariextrabrowner-elf/10.2.0/../../../../m68k-atariextrabrowner-elf/lib/m68000/libc.a(crtinit.o)
                                         0xad (size before relaxing)
 .rodata.str1.1
                0x00000000000414de       0x14 /Users/davidebucci/Desktop/Synchronized/Vintage/Computing/Atari/ST/brown/lib/gcc/m68k-atariextrabrowner-elf/10.2.0/../../../../m68k-atariextrabrowner-elf/lib/m68000/libc.a(globals.o)
 .rodata.str1.1
                0x00000000000414f2       0x13 /Users/davidebucci/Desktop/Synchronized/Vintage/Computing/Atari/ST/brown/lib/gcc/m68k-atariextrabrowner-elf/10.2.0/../../../../m68k-atariextrabrowner-elf/lib/m68000/libc.a(main.o)
 .rodata.str1.1
                0x0000000000041505       0x4d /Users/davidebucci/Desktop/Synchronized/Vintage/Computing/Atari/ST/brown/lib/gcc/m68k-atariextrabrowner-elf/10.2.0/../../../../m68k-atariextrabrowner-elf/lib/m68000/libc.a(malloc.o)
 .rodata        0x0000000000041552        0x7 /Users/davidebucci/Desktop/Synchronized/Vintage/Computing/Atari/ST/brown/lib/gcc/m68k-atariextrabrowner-elf/10.2.0/../../../../m68k-atariextrabrowner-elf/lib/m68000/libc.a(malloc.o)
 .rodata.str1.1
                0x0000000000041559       0x1c /Users/davidebucci/Desktop/Synchronized/Vintage/Computing/Atari/ST/brown/lib/gcc/m68k-atariextrabrowner-elf/10.2.0/../../../../m68k-atariextrabrowner-elf/lib/m68000/libc.a(realloc.o)
 .rodata        0x0000000000041575        0xa /Users/davidebucci/Desktop/Synchronized/Vintage/Computing/Atari/ST/brown/lib/gcc/m68k-atariextrabrowner-elf/10.2.0/../../../../m68k-atariextrabrowner-elf/lib/m68000/libc.a(realloc.o)
 .rodata.str1.1
                0x000000000004157f       0x12 /Users/davidebucci/Desktop/Synchronized/Vintage/Computing/Atari/ST/brown/lib/gcc/m68k-atariextrabrowner-elf/10.2.0/../../../../m68k-atariextrabrowner-elf/lib/m68000/libc.a(unx2dos.o)
                                         0x14 (size before relaxing)
 *fill*         0x0000000000041591        0x1 
 .rodata        0x0000000000041592       0x30 /Users/davidebucci/Desktop/Synchronized/Vintage/Computing/Atari/ST/brown/lib/gcc/m68k-atariextrabrowner-elf/10.2.0/../../../../m68k-atariextrabrowner-elf/lib/m68000/libc.a(internals.o)
                0x0000000000041592                ___default_room_functions
                0x000000000004159a                ___default_text_io_functions
                0x00000000000415ae                ___default_io_functions
 .rodata.str1.1
                0x00000000000415c2        0x9 /Users/davidebucci/Desktop/Synchronized/Vintage/Computing/Atari/ST/brown/lib/gcc/m68k-atariextrabrowner-elf/10.2.0/../../../../m68k-atariextrabrowner-elf/lib/m68000/libc.a(open.o)
 .rodata.str1.1
                0x00000000000415cb       0x18 /Users/davidebucci/Desktop/Synchronized/Vintage/Computing/Atari/ST/brown/lib/gcc/m68k-atariextrabrowner-elf/10.2.0/../../../../m68k-atariextrabrowner-elf/lib/m68000/libc.a(assert.o)
                                         0x31 (size before relaxing)
 .rodata.str1.1
                0x00000000000415e3       0x19 /Users/davidebucci/Desktop/Synchronized/Vintage/Computing/Atari/ST/brown/lib/gcc/m68k-atariextrabrowner-elf/10.2.0/../../../../m68k-atariextrabrowner-elf/lib/m68000/libc.a(quickstat.o)
 .rodata        0x00000000000415fc       0x4a /Users/davidebucci/Desktop/Synchronized/Vintage/Computing/Atari/ST/brown/lib/gcc/m68k-atariextrabrowner-elf/10.2.0/../../../../m68k-atariextrabrowner-elf/lib/m68000/libc.a(itoa-digits.o)
                0x00000000000415fc                __itoa_upper_digits
                0x0000000000041621                __itoa_lower_digits
 .rodata.str1.1
                0x0000000000041646       0x94 /Users/davidebucci/Desktop/Synchronized/Vintage/Computing/Atari/ST/brown/lib/gcc/m68k-atariextrabrowner-elf/10.2.0/../../../../m68k-atariextrabrowner-elf/lib/m68000/libc.a(localtime.o)
 .rodata        0x00000000000416da     0x2dcc /Users/davidebucci/Desktop/Synchronized/Vintage/Computing/Atari/ST/brown/lib/gcc/m68k-atariextrabrowner-elf/10.2.0/../../../../m68k-atariextrabrowner-elf/lib/m68000/libc.a(localtime.o)
 .rodata.str1.1
                0x00000000000444a6        0xc /Users/davidebucci/Desktop/Synchronized/Vintage/Computing/Atari/ST/brown/lib/gcc/m68k-atariextrabrowner-elf/10.2.0/../../../../m68k-atariextrabrowner-elf/lib/m68000/libc.a(ioctl.o)
 .rodata.str1.1
                0x00000000000444b2       0x19 /Users/davidebucci/Desktop/Synchronized/Vintage/Computing/Atari/ST/brown/lib/gcc/m68k-atariextrabrowner-elf/10.2.0/../../../../m68k-atariextrabrowner-elf/lib/m68000/libc.a(do_stat.o)
 .rodata.str1.1
                0x00000000000444b2        0xc /Users/davidebucci/Desktop/Synchronized/Vintage/Computing/Atari/ST/brown/lib/gcc/m68k-atariextrabrowner-elf/10.2.0/../../../../m68k-atariextrabrowner-elf/lib/m68000/libc.a(getpwuid_r.o)
                                          0xe (size before relaxing)
 .rodata.str1.1
                0x00000000000444be        0xb /Users/davidebucci/Desktop/Synchronized/Vintage/Computing/Atari/ST/brown/lib/gcc/m68k-atariextrabrowner-elf/10.2.0/../../../../m68k-atariextrabrowner-elf/lib/m68000/libc.a(grp.o)
                                          0xe (size before relaxing)
 .rodata.str1.1
                0x00000000000444c9       0x6a /Users/davidebucci/Desktop/Synchronized/Vintage/Computing/Atari/ST/brown/lib/gcc/m68k-atariextrabrowner-elf/10.2.0/../../../../m68k-atariextrabrowner-elf/lib/m68000/libc.a(asctime.o)
                                         0x6d (size before relaxing)
 .rodata        0x0000000000044533       0x39 /Users/davidebucci/Desktop/Synchronized/Vintage/Computing/Atari/ST/brown/lib/gcc/m68k-atariextrabrowner-elf/10.2.0/../../../../m68k-atariextrabrowner-elf/lib/m68000/libc.a(asctime.o)
 .rodata.str1.1
                0x000000000004456c      0x1e9 /Users/davidebucci/Desktop/Synchronized/Vintage/Computing/Atari/ST/brown/lib/gcc/m68k-atariextrabrowner-elf/10.2.0/../../../../m68k-atariextrabrowner-elf/lib/m68000/libc.a(strftime.o)
                                        0x1ee (size before relaxing)
 *fill*         0x0000000000044755        0x1 
 .rodata        0x0000000000044756       0xc8 /Users/davidebucci/Desktop/Synchronized/Vintage/Computing/Atari/ST/brown/lib/gcc/m68k-atariextrabrowner-elf/10.2.0/../../../../m68k-atariextrabrowner-elf/lib/m68000/libc.a(strftime.o)
 .rodata.str1.1
                0x000000000004481e        0x2 /Users/davidebucci/Desktop/Synchronized/Vintage/Computing/Atari/ST/brown/lib/gcc/m68k-atariextrabrowner-elf/10.2.0/../../../../m68k-atariextrabrowner-elf/lib/m68000/libc.a(setlocale.o)
 .rodata.str1.1
                0x0000000000044820        0x1 /Users/davidebucci/Desktop/Synchronized/Vintage/Computing/Atari/ST/brown/lib/gcc/m68k-atariextrabrowner-elf/10.2.0/../../../../m68k-atariextrabrowner-elf/lib/m68000/libc.a(fgetpwent_r.o)
 .rodata.str1.1
                0x0000000000044820        0x6 /Users/davidebucci/Desktop/Synchronized/Vintage/Computing/Atari/ST/brown/lib/gcc/m68k-atariextrabrowner-elf/10.2.0/../../../../m68k-atariextrabrowner-elf/lib/m68000/libc.a(vfprintf.o)
                                          0x7 (size before relaxing)
 .rodata        0x0000000000044826      0x4cb /Users/davidebucci/Desktop/Synchronized/Vintage/Computing/Atari/ST/brown/lib/gcc/m68k-atariextrabrowner-elf/10.2.0/../../../../m68k-atariextrabrowner-elf/lib/m68000/libc.a(vfprintf.o)
 *fill*         0x0000000000044cf1        0x1 
 .rodata        0x0000000000044cf2      0x230 /Users/davidebucci/Desktop/Synchronized/Vintage/Computing/Atari/ST/brown/lib/gcc/m68k-atariextrabrowner-elf/10.2.0/../../../../m68k-atariextrabrowner-elf/lib/m68000/libc.a(_itoa.o)
 .rodata.str1.1
                0x0000000000044f22       0x10 /Users/davidebucci/Desktop/Synchronized/Vintage/Computing/Atari/ST/brown/lib/gcc/m68k-atariextrabrowner-elf/10.2.0/../../../../m68k-atariextrabrowner-elf/lib/m68000/libc.a(printf_fp.o)
 .rodata        0x0000000000044f32        0xc /Users/davidebucci/Desktop/Synchronized/Vintage/Computing/Atari/ST/brown/lib/gcc/m68k-atariextrabrowner-elf/10.2.0/../../../../m68k-atariextrabrowner-elf/lib/m68000/libc.a(printf_fp.o)
 .rodata.str1.1
                0x0000000000044f3e       0x10 /Users/davidebucci/Desktop/Synchronized/Vintage/Computing/Atari/ST/brown/lib/gcc/m68k-atariextrabrowner-elf/10.2.0/../../../../m68k-atariextrabrowner-elf/lib/m68000/libc.a(printf_fphex.o)
 .rodata        0x0000000000044f3e      0xea0 /Users/davidebucci/Desktop/Synchronized/Vintage/Computing/Atari/ST/brown/lib/gcc/m68k-atariextrabrowner-elf/10.2.0/../../../../m68k-atariextrabrowner-elf/lib/m68000/libc.a(fpioconst.o)
                0x0000000000044f3e                __fpioconst_pow10
                0x000000000004500e                ___tens
 .rodata.str1.1
                0x0000000000045dde      0xcb1 /Users/davidebucci/Desktop/Synchronized/Vintage/Computing/Atari/ST/brown/lib/gcc/m68k-atariextrabrowner-elf/10.2.0/../../../../m68k-atariextrabrowner-elf/lib/m68000/libc.a(strerror.o)
                                        0xcbb (size before relaxing)
 *fill*         0x0000000000046a8f        0x1 
 .rodata        0x0000000000046a90      0x532 /Users/davidebucci/Desktop/Synchronized/Vintage/Computing/Atari/ST/brown/lib/gcc/m68k-atariextrabrowner-elf/10.2.0/../../../../m68k-atariextrabrowner-elf/lib/m68000/libc.a(strerror.o)
                0x0000000000046a90                __sys_errlist
                0x0000000000046a90                _sys_errlist
 .rodata        0x0000000000046fc2      0x100 /Users/davidebucci/Desktop/Synchronized/Vintage/Computing/Atari/ST/brown/lib/gcc/m68k-atariextrabrowner-elf/10.2.0/../../../../m68k-atariextrabrowner-elf/lib/m68000/libc.a(mp_clz_tab.o)
                0x0000000000046fc2                ___clz_tab

.rodata1
 *(.rodata1)

.eh_frame_hdr
 *(.eh_frame_hdr)
 *(.eh_frame_entry .eh_frame_entry.*)

.eh_frame       0x00000000000470c4        0x4
 *(.eh_frame)
 .eh_frame      0x00000000000470c4        0x0 /Users/davidebucci/Desktop/Synchronized/Vintage/Computing/Atari/ST/brown/lib/gcc/m68k-atariextrabrowner-elf/10.2.0/m68000/crtbegin.o
 .eh_frame      0x00000000000470c4        0x4 /Users/davidebucci/Desktop/Synchronized/Vintage/Computing/Atari/ST/brown/lib/gcc/m68k-atariextrabrowner-elf/10.2.0/m68000/crtend.o
 *(.eh_frame.*)

.gcc_except_table
 *(.gcc_except_table .gcc_except_table.*)

.gnu_extab
 *(.gnu_extab*)

.exception_ranges
 *(.exception_ranges*)
                0x00000000000490c8                . = DATA_SEGMENT_ALIGN (CONSTANT (MAXPAGESIZE), CONSTANT (COMMONPAGESIZE))

.eh_frame
 *(.eh_frame)
 *(.eh_frame.*)

.gnu_extab
 *(.gnu_extab)

.gcc_except_table
 *(.gcc_except_table .gcc_except_table.*)

.exception_ranges
 *(.exception_ranges*)

.tdata          0x00000000000490c8        0x0
                [!provide]                        PROVIDE (__tdata_start = .)
 *(.tdata .tdata.* .gnu.linkonce.td.*)

.tbss
 *(.tbss .tbss.* .gnu.linkonce.tb.*)
 *(.tcommon)

.preinit_array  0x00000000000490c8        0x0
                [!provide]                        PROVIDE (__preinit_array_start = .)
 *(.preinit_array)
                [!provide]                        PROVIDE (__preinit_array_end = .)

.init_array     0x00000000000490c8        0x0
                [!provide]                        PROVIDE (__init_array_start = .)
 *(SORT_BY_INIT_PRIORITY(.init_array.*) SORT_BY_INIT_PRIORITY(.ctors.*))
 *(.init_array EXCLUDE_FILE(*crtend?.o *crtend.o *crtbegin?.o *crtbegin.o) .ctors)
                [!provide]                        PROVIDE (__init_array_end = .)

.fini_array     0x00000000000490c8        0x0
                [!provide]                        PROVIDE (__fini_array_start = .)
 *(SORT_BY_INIT_PRIORITY(.fini_array.*) SORT_BY_INIT_PRIORITY(.dtors.*))
 *(.fini_array EXCLUDE_FILE(*crtend?.o *crtend.o *crtbegin?.o *crtbegin.o) .dtors)
                [!provide]                        PROVIDE (__fini_array_end = .)

.ctors          0x00000000000490c8        0x8
 *crtbegin.o(.ctors)
 .ctors         0x00000000000490c8        0x4 /Users/davidebucci/Desktop/Synchronized/Vintage/Computing/Atari/ST/brown/lib/gcc/m68k-atariextrabrowner-elf/10.2.0/m68000/crtbegin.o
 *crtbegin?.o(.ctors)
 *(EXCLUDE_FILE(*crtend?.o *crtend.o) .ctors)
 *(SORT_BY_NAME(.ctors.*))
 *(.ctors)
 .ctors         0x00000000000490cc        0x4 /Users/davidebucci/Desktop/Synchronized/Vintage/Computing/Atari/ST/brown/lib/gcc/m68k-atariextrabrowner-elf/10.2.0/m68000/crtend.o

.dtors          0x00000000000490d0        0x8
 *crtbegin.o(.dtors)
 .dtors         0x00000000000490d0        0x4 /Users/davidebucci/Desktop/Synchronized/Vintage/Computing/Atari/ST/brown/lib/gcc/m68k-atariextrabrowner-elf/10.2.0/m68000/crtbegin.o
 *crtbegin?.o(.dtors)
 *(EXCLUDE_FILE(*crtend?.o *crtend.o) .dtors)
 *(SORT_BY_NAME(.dtors.*))
 *(.dtors)
 .dtors         0x00000000000490d4        0x4 /Users/davidebucci/Desktop/Synchronized/Vintage/Computing/Atari/ST/brown/lib/gcc/m68k-atariextrabrowner-elf/10.2.0/m68000/crtend.o
                0x00000000000490d4                ___DTOR_END__

.jcr
 *(.jcr)

.data.rel.ro
 *(.data.rel.ro.local* .gnu.linkonce.d.rel.ro.local.*)
 *(.data.rel.ro .data.rel.ro.* .gnu.linkonce.d.rel.ro.*)

.dynamic
 *(.dynamic)
                0x00000000000490d8                . = DATA_SEGMENT_RELRO_END (., 0x0)

.got
 *(.got.plt)
 *(.igot.plt)
 *(.got)
 *(.igot)

.data           0x00000000000490d8     0x52ac
 *(.data .data.* .gnu.linkonce.d.*)
 .data          0x00000000000490d8        0x4 /Users/davidebucci/Desktop/Synchronized/Vintage/Computing/Atari/ST/brown/lib/gcc/m68k-atariextrabrowner-elf/10.2.0/m68000/crtbegin.o
                0x00000000000490d8                ___dso_handle
 .data          0x00000000000490dc        0x0 /Users/davidebucci/Desktop/Synchronized/Vintage/Computing/Atari/ST/brown//../bigbrownbuild-git/mintlib-bigbrownbuild-10.2.0/startup/crt0.o
 .data          0x00000000000490dc        0x0 /var/folders/sk/pxzc9l1n12xfhw7mpgdgdkdc0000gn/T//tdttr40.elf.LVtvPN.ltrans0.ltrans.o
 .data.message1026
                0x00000000000490dc        0x4 /var/folders/sk/pxzc9l1n12xfhw7mpgdgdkdc0000gn/T//tdttr40.elf.LVtvPN.ltrans0.ltrans.o
 .data.message1025
                0x00000000000490e0        0x3 /var/folders/sk/pxzc9l1n12xfhw7mpgdgdkdc0000gn/T//tdttr40.elf.LVtvPN.ltrans0.ltrans.o
 .data.message1024
                0x00000000000490e3        0x3 /var/folders/sk/pxzc9l1n12xfhw7mpgdgdkdc0000gn/T//tdttr40.elf.LVtvPN.ltrans0.ltrans.o
 .data.message1023
                0x00000000000490e6        0x3 /var/folders/sk/pxzc9l1n12xfhw7mpgdgdkdc0000gn/T//tdttr40.elf.LVtvPN.ltrans0.ltrans.o
 .data.message1022
                0x00000000000490e9        0x4 /var/folders/sk/pxzc9l1n12xfhw7mpgdgdkdc0000gn/T//tdttr40.elf.LVtvPN.ltrans0.ltrans.o
 .data.message1021
                0x00000000000490ed        0x4 /var/folders/sk/pxzc9l1n12xfhw7mpgdgdkdc0000gn/T//tdttr40.elf.LVtvPN.ltrans0.ltrans.o
 .data.desc_l234
                0x00000000000490f1        0xb /var/folders/sk/pxzc9l1n12xfhw7mpgdgdkdc0000gn/T//tdttr40.elf.LVtvPN.ltrans0.ltrans.o
 .data.desc_l217
                0x00000000000490fc        0xe /var/folders/sk/pxzc9l1n12xfhw7mpgdgdkdc0000gn/T//tdttr40.elf.LVtvPN.ltrans0.ltrans.o
 .data.desc_l159
                0x000000000004910a        0x8 /var/folders/sk/pxzc9l1n12xfhw7mpgdgdkdc0000gn/T//tdttr40.elf.LVtvPN.ltrans0.ltrans.o
 .data.desc_l157
                0x0000000000049112        0x7 /var/folders/sk/pxzc9l1n12xfhw7mpgdgdkdc0000gn/T//tdttr40.elf.LVtvPN.ltrans0.ltrans.o
 .data.desc_l156
                0x0000000000049119       0x18 /var/folders/sk/pxzc9l1n12xfhw7mpgdgdkdc0000gn/T//tdttr40.elf.LVtvPN.ltrans0.ltrans.o
 .data.desc_l142
                0x0000000000049131        0xb /var/folders/sk/pxzc9l1n12xfhw7mpgdgdkdc0000gn/T//tdttr40.elf.LVtvPN.ltrans0.ltrans.o
 .data.desc_l138
                0x000000000004913c        0x7 /var/folders/sk/pxzc9l1n12xfhw7mpgdgdkdc0000gn/T//tdttr40.elf.LVtvPN.ltrans0.ltrans.o
 .data.desc_l137
                0x0000000000049143        0x5 /var/folders/sk/pxzc9l1n12xfhw7mpgdgdkdc0000gn/T//tdttr40.elf.LVtvPN.ltrans0.ltrans.o
 .data.desc_l130
                0x0000000000049148        0x6 /var/folders/sk/pxzc9l1n12xfhw7mpgdgdkdc0000gn/T//tdttr40.elf.LVtvPN.ltrans0.ltrans.o
 .data.desc_l108
                0x000000000004914e       0x1b /var/folders/sk/pxzc9l1n12xfhw7mpgdgdkdc0000gn/T//tdttr40.elf.LVtvPN.ltrans0.ltrans.o
 .data.desc_l107
                0x0000000000049169        0xa /var/folders/sk/pxzc9l1n12xfhw7mpgdgdkdc0000gn/T//tdttr40.elf.LVtvPN.ltrans0.ltrans.o
 .data.desc_l106
                0x0000000000049173        0xa /var/folders/sk/pxzc9l1n12xfhw7mpgdgdkdc0000gn/T//tdttr40.elf.LVtvPN.ltrans0.ltrans.o
 .data.desc_l105
                0x000000000004917d        0xf /var/folders/sk/pxzc9l1n12xfhw7mpgdgdkdc0000gn/T//tdttr40.elf.LVtvPN.ltrans0.ltrans.o
 .data.desc_l89
                0x000000000004918c        0xf /var/folders/sk/pxzc9l1n12xfhw7mpgdgdkdc0000gn/T//tdttr40.elf.LVtvPN.ltrans0.ltrans.o
 .data.desc_l58
                0x000000000004919b        0xb /var/folders/sk/pxzc9l1n12xfhw7mpgdgdkdc0000gn/T//tdttr40.elf.LVtvPN.ltrans0.ltrans.o
 .data.desc_l29
                0x00000000000491a6        0xd /var/folders/sk/pxzc9l1n12xfhw7mpgdgdkdc0000gn/T//tdttr40.elf.LVtvPN.ltrans0.ltrans.o
 .data.desc_l57
                0x00000000000491b3        0x8 /var/folders/sk/pxzc9l1n12xfhw7mpgdgdkdc0000gn/T//tdttr40.elf.LVtvPN.ltrans0.ltrans.o
 .data.desc_l24
                0x00000000000491bb        0xb /var/folders/sk/pxzc9l1n12xfhw7mpgdgdkdc0000gn/T//tdttr40.elf.LVtvPN.ltrans0.ltrans.o
 .data.desc_l23
                0x00000000000491c6        0xb /var/folders/sk/pxzc9l1n12xfhw7mpgdgdkdc0000gn/T//tdttr40.elf.LVtvPN.ltrans0.ltrans.o
 .data.desc_l22
                0x00000000000491d1        0xe /var/folders/sk/pxzc9l1n12xfhw7mpgdgdkdc0000gn/T//tdttr40.elf.LVtvPN.ltrans0.ltrans.o
 .data.desc_l11
                0x00000000000491df        0x8 /var/folders/sk/pxzc9l1n12xfhw7mpgdgdkdc0000gn/T//tdttr40.elf.LVtvPN.ltrans0.ltrans.o
 .data.desc_l10
                0x00000000000491e7        0x9 /var/folders/sk/pxzc9l1n12xfhw7mpgdgdkdc0000gn/T//tdttr40.elf.LVtvPN.ltrans0.ltrans.o
 .data.desc_l9  0x00000000000491f0       0x18 /var/folders/sk/pxzc9l1n12xfhw7mpgdgdkdc0000gn/T//tdttr40.elf.LVtvPN.ltrans0.ltrans.o
 .data.desc_l6  0x0000000000049208        0xf /var/folders/sk/pxzc9l1n12xfhw7mpgdgdkdc0000gn/T//tdttr40.elf.LVtvPN.ltrans0.ltrans.o
 .data.headerdescription
                0x0000000000049217       0x1b /var/folders/sk/pxzc9l1n12xfhw7mpgdgdkdc0000gn/T//tdttr40.elf.LVtvPN.ltrans0.ltrans.o
 .data.header   0x0000000000049232       0x2f /var/folders/sk/pxzc9l1n12xfhw7mpgdgdkdc0000gn/T//tdttr40.elf.LVtvPN.ltrans0.ltrans.o
 .data.message163
                0x0000000000049261      0x152 /var/folders/sk/pxzc9l1n12xfhw7mpgdgdkdc0000gn/T//tdttr40.elf.LVtvPN.ltrans0.ltrans.o
 .data.message299
                0x00000000000493b3       0x33 /var/folders/sk/pxzc9l1n12xfhw7mpgdgdkdc0000gn/T//tdttr40.elf.LVtvPN.ltrans0.ltrans.o
 .data.message170
                0x00000000000493e6       0x36 /var/folders/sk/pxzc9l1n12xfhw7mpgdgdkdc0000gn/T//tdttr40.elf.LVtvPN.ltrans0.ltrans.o
 .data.exitrestart
                0x000000000004941c       0x1c /var/folders/sk/pxzc9l1n12xfhw7mpgdgdkdc0000gn/T//tdttr40.elf.LVtvPN.ltrans0.ltrans.o
 .data.message152
                0x0000000000049438      0x21a /var/folders/sk/pxzc9l1n12xfhw7mpgdgdkdc0000gn/T//tdttr40.elf.LVtvPN.ltrans0.ltrans.o
 .data.message165
                0x0000000000049652       0x49 /var/folders/sk/pxzc9l1n12xfhw7mpgdgdkdc0000gn/T//tdttr40.elf.LVtvPN.ltrans0.ltrans.o
 .data.message166
                0x000000000004969b       0x30 /var/folders/sk/pxzc9l1n12xfhw7mpgdgdkdc0000gn/T//tdttr40.elf.LVtvPN.ltrans0.ltrans.o
 .data.message164
                0x00000000000496cb       0x2e /var/folders/sk/pxzc9l1n12xfhw7mpgdgdkdc0000gn/T//tdttr40.elf.LVtvPN.ltrans0.ltrans.o
 .data.message169
                0x00000000000496f9       0x80 /var/folders/sk/pxzc9l1n12xfhw7mpgdgdkdc0000gn/T//tdttr40.elf.LVtvPN.ltrans0.ltrans.o
 .data.message404
                0x0000000000049779       0x37 /var/folders/sk/pxzc9l1n12xfhw7mpgdgdkdc0000gn/T//tdttr40.elf.LVtvPN.ltrans0.ltrans.o
 .data.message168
                0x00000000000497b0       0x67 /var/folders/sk/pxzc9l1n12xfhw7mpgdgdkdc0000gn/T//tdttr40.elf.LVtvPN.ltrans0.ltrans.o
 .data.message161
                0x0000000000049817        0x8 /var/folders/sk/pxzc9l1n12xfhw7mpgdgdkdc0000gn/T//tdttr40.elf.LVtvPN.ltrans0.ltrans.o
 .data.message162
                0x000000000004981f       0x28 /var/folders/sk/pxzc9l1n12xfhw7mpgdgdkdc0000gn/T//tdttr40.elf.LVtvPN.ltrans0.ltrans.o
 .data.message160
                0x0000000000049847       0x3c /var/folders/sk/pxzc9l1n12xfhw7mpgdgdkdc0000gn/T//tdttr40.elf.LVtvPN.ltrans0.ltrans.o
 .data.message159
                0x0000000000049883       0x4c /var/folders/sk/pxzc9l1n12xfhw7mpgdgdkdc0000gn/T//tdttr40.elf.LVtvPN.ltrans0.ltrans.o
 .data.message158
                0x00000000000498cf       0x5a /var/folders/sk/pxzc9l1n12xfhw7mpgdgdkdc0000gn/T//tdttr40.elf.LVtvPN.ltrans0.ltrans.o
 .data.message154
                0x0000000000049929       0x46 /var/folders/sk/pxzc9l1n12xfhw7mpgdgdkdc0000gn/T//tdttr40.elf.LVtvPN.ltrans0.ltrans.o
 .data.message153
                0x000000000004996f      0x1c1 /var/folders/sk/pxzc9l1n12xfhw7mpgdgdkdc0000gn/T//tdttr40.elf.LVtvPN.ltrans0.ltrans.o
 .data.message157
                0x0000000000049b30       0x44 /var/folders/sk/pxzc9l1n12xfhw7mpgdgdkdc0000gn/T//tdttr40.elf.LVtvPN.ltrans0.ltrans.o
 .data.message156
                0x0000000000049b74       0x4a /var/folders/sk/pxzc9l1n12xfhw7mpgdgdkdc0000gn/T//tdttr40.elf.LVtvPN.ltrans0.ltrans.o
 .data.message514
                0x0000000000049bbe       0x11 /var/folders/sk/pxzc9l1n12xfhw7mpgdgdkdc0000gn/T//tdttr40.elf.LVtvPN.ltrans0.ltrans.o
 .data.message155
                0x0000000000049bcf       0x3e /var/folders/sk/pxzc9l1n12xfhw7mpgdgdkdc0000gn/T//tdttr40.elf.LVtvPN.ltrans0.ltrans.o
 .data.message298
                0x0000000000049c0d       0x13 /var/folders/sk/pxzc9l1n12xfhw7mpgdgdkdc0000gn/T//tdttr40.elf.LVtvPN.ltrans0.ltrans.o
 .data.message513
                0x0000000000049c20       0x17 /var/folders/sk/pxzc9l1n12xfhw7mpgdgdkdc0000gn/T//tdttr40.elf.LVtvPN.ltrans0.ltrans.o
 .data.message145
                0x0000000000049c37       0x4b /var/folders/sk/pxzc9l1n12xfhw7mpgdgdkdc0000gn/T//tdttr40.elf.LVtvPN.ltrans0.ltrans.o
 .data.message143
                0x0000000000049c82       0x22 /var/folders/sk/pxzc9l1n12xfhw7mpgdgdkdc0000gn/T//tdttr40.elf.LVtvPN.ltrans0.ltrans.o
 .data.message142
                0x0000000000049ca4       0x39 /var/folders/sk/pxzc9l1n12xfhw7mpgdgdkdc0000gn/T//tdttr40.elf.LVtvPN.ltrans0.ltrans.o
 .data.message141
                0x0000000000049cdd       0x52 /var/folders/sk/pxzc9l1n12xfhw7mpgdgdkdc0000gn/T//tdttr40.elf.LVtvPN.ltrans0.ltrans.o
 .data.message144
                0x0000000000049d2f       0x43 /var/folders/sk/pxzc9l1n12xfhw7mpgdgdkdc0000gn/T//tdttr40.elf.LVtvPN.ltrans0.ltrans.o
 .data.message521
                0x0000000000049d72       0x3f /var/folders/sk/pxzc9l1n12xfhw7mpgdgdkdc0000gn/T//tdttr40.elf.LVtvPN.ltrans0.ltrans.o
 .data.message117
                0x0000000000049db1       0x2a /var/folders/sk/pxzc9l1n12xfhw7mpgdgdkdc0000gn/T//tdttr40.elf.LVtvPN.ltrans0.ltrans.o
 .data.message116
                0x0000000000049ddb       0x44 /var/folders/sk/pxzc9l1n12xfhw7mpgdgdkdc0000gn/T//tdttr40.elf.LVtvPN.ltrans0.ltrans.o
 .data.message113
                0x0000000000049e1f       0x18 /var/folders/sk/pxzc9l1n12xfhw7mpgdgdkdc0000gn/T//tdttr40.elf.LVtvPN.ltrans0.ltrans.o
 .data.message290
                0x0000000000049e37        0xc /var/folders/sk/pxzc9l1n12xfhw7mpgdgdkdc0000gn/T//tdttr40.elf.LVtvPN.ltrans0.ltrans.o
 .data.message114
                0x0000000000049e43       0x99 /var/folders/sk/pxzc9l1n12xfhw7mpgdgdkdc0000gn/T//tdttr40.elf.LVtvPN.ltrans0.ltrans.o
 .data.message292
                0x0000000000049edc        0xd /var/folders/sk/pxzc9l1n12xfhw7mpgdgdkdc0000gn/T//tdttr40.elf.LVtvPN.ltrans0.ltrans.o
 .data.message291
                0x0000000000049ee9       0x2b /var/folders/sk/pxzc9l1n12xfhw7mpgdgdkdc0000gn/T//tdttr40.elf.LVtvPN.ltrans0.ltrans.o
 .data.message112
                0x0000000000049f14       0x4d /var/folders/sk/pxzc9l1n12xfhw7mpgdgdkdc0000gn/T//tdttr40.elf.LVtvPN.ltrans0.ltrans.o
 .data.message151
                0x0000000000049f61       0x45 /var/folders/sk/pxzc9l1n12xfhw7mpgdgdkdc0000gn/T//tdttr40.elf.LVtvPN.ltrans0.ltrans.o
 .data.message110
                0x0000000000049fa6       0x22 /var/folders/sk/pxzc9l1n12xfhw7mpgdgdkdc0000gn/T//tdttr40.elf.LVtvPN.ltrans0.ltrans.o
 .data.message295
                0x0000000000049fc8       0x2c /var/folders/sk/pxzc9l1n12xfhw7mpgdgdkdc0000gn/T//tdttr40.elf.LVtvPN.ltrans0.ltrans.o
 .data.message109
                0x0000000000049ff4       0x21 /var/folders/sk/pxzc9l1n12xfhw7mpgdgdkdc0000gn/T//tdttr40.elf.LVtvPN.ltrans0.ltrans.o
 .data.message108
                0x000000000004a015       0x23 /var/folders/sk/pxzc9l1n12xfhw7mpgdgdkdc0000gn/T//tdttr40.elf.LVtvPN.ltrans0.ltrans.o
 .data.message107
                0x000000000004a038       0x7f /var/folders/sk/pxzc9l1n12xfhw7mpgdgdkdc0000gn/T//tdttr40.elf.LVtvPN.ltrans0.ltrans.o
 .data.message300
                0x000000000004a0b7       0x6f /var/folders/sk/pxzc9l1n12xfhw7mpgdgdkdc0000gn/T//tdttr40.elf.LVtvPN.ltrans0.ltrans.o
 .data.message106
                0x000000000004a126       0x8b /var/folders/sk/pxzc9l1n12xfhw7mpgdgdkdc0000gn/T//tdttr40.elf.LVtvPN.ltrans0.ltrans.o
 .data.message146
                0x000000000004a1b1       0x55 /var/folders/sk/pxzc9l1n12xfhw7mpgdgdkdc0000gn/T//tdttr40.elf.LVtvPN.ltrans0.ltrans.o
 .data.message296
                0x000000000004a206       0x12 /var/folders/sk/pxzc9l1n12xfhw7mpgdgdkdc0000gn/T//tdttr40.elf.LVtvPN.ltrans0.ltrans.o
 .data.message293
                0x000000000004a218       0x1d /var/folders/sk/pxzc9l1n12xfhw7mpgdgdkdc0000gn/T//tdttr40.elf.LVtvPN.ltrans0.ltrans.o
 .data.message294
                0x000000000004a235       0x4f /var/folders/sk/pxzc9l1n12xfhw7mpgdgdkdc0000gn/T//tdttr40.elf.LVtvPN.ltrans0.ltrans.o
 .data.message272
                0x000000000004a284       0x53 /var/folders/sk/pxzc9l1n12xfhw7mpgdgdkdc0000gn/T//tdttr40.elf.LVtvPN.ltrans0.ltrans.o
 .data.message271
                0x000000000004a2d7       0xce /var/folders/sk/pxzc9l1n12xfhw7mpgdgdkdc0000gn/T//tdttr40.elf.LVtvPN.ltrans0.ltrans.o
 .data.message270
                0x000000000004a3a5       0xd2 /var/folders/sk/pxzc9l1n12xfhw7mpgdgdkdc0000gn/T//tdttr40.elf.LVtvPN.ltrans0.ltrans.o
 .data.message150
                0x000000000004a477       0x42 /var/folders/sk/pxzc9l1n12xfhw7mpgdgdkdc0000gn/T//tdttr40.elf.LVtvPN.ltrans0.ltrans.o
 .data.message86
                0x000000000004a4b9       0x52 /var/folders/sk/pxzc9l1n12xfhw7mpgdgdkdc0000gn/T//tdttr40.elf.LVtvPN.ltrans0.ltrans.o
 .data.message519
                0x000000000004a50b       0x2e /var/folders/sk/pxzc9l1n12xfhw7mpgdgdkdc0000gn/T//tdttr40.elf.LVtvPN.ltrans0.ltrans.o
 .data.message69
                0x000000000004a539       0x68 /var/folders/sk/pxzc9l1n12xfhw7mpgdgdkdc0000gn/T//tdttr40.elf.LVtvPN.ltrans0.ltrans.o
 .data.message66
                0x000000000004a5a1       0x43 /var/folders/sk/pxzc9l1n12xfhw7mpgdgdkdc0000gn/T//tdttr40.elf.LVtvPN.ltrans0.ltrans.o
 .data.message65
                0x000000000004a5e4       0xb1 /var/folders/sk/pxzc9l1n12xfhw7mpgdgdkdc0000gn/T//tdttr40.elf.LVtvPN.ltrans0.ltrans.o
 .data.message72
                0x000000000004a695       0x78 /var/folders/sk/pxzc9l1n12xfhw7mpgdgdkdc0000gn/T//tdttr40.elf.LVtvPN.ltrans0.ltrans.o
 .data.message67
                0x000000000004a70d       0x5d /var/folders/sk/pxzc9l1n12xfhw7mpgdgdkdc0000gn/T//tdttr40.elf.LVtvPN.ltrans0.ltrans.o
 .data.message93
                0x000000000004a76a       0x3a /var/folders/sk/pxzc9l1n12xfhw7mpgdgdkdc0000gn/T//tdttr40.elf.LVtvPN.ltrans0.ltrans.o
 .data.message68
                0x000000000004a7a4       0x47 /var/folders/sk/pxzc9l1n12xfhw7mpgdgdkdc0000gn/T//tdttr40.elf.LVtvPN.ltrans0.ltrans.o
 .data.message64
                0x000000000004a7eb      0x10f /var/folders/sk/pxzc9l1n12xfhw7mpgdgdkdc0000gn/T//tdttr40.elf.LVtvPN.ltrans0.ltrans.o
 .data.message63
                0x000000000004a8fa       0x3b /var/folders/sk/pxzc9l1n12xfhw7mpgdgdkdc0000gn/T//tdttr40.elf.LVtvPN.ltrans0.ltrans.o
 .data.message79
                0x000000000004a935       0x9d /var/folders/sk/pxzc9l1n12xfhw7mpgdgdkdc0000gn/T//tdttr40.elf.LVtvPN.ltrans0.ltrans.o
 .data.message288
                0x000000000004a9d2        0xf /var/folders/sk/pxzc9l1n12xfhw7mpgdgdkdc0000gn/T//tdttr40.elf.LVtvPN.ltrans0.ltrans.o
 .data.message83
                0x000000000004a9e1       0x8c /var/folders/sk/pxzc9l1n12xfhw7mpgdgdkdc0000gn/T//tdttr40.elf.LVtvPN.ltrans0.ltrans.o
 .data.message70
                0x000000000004aa6d      0x19a /var/folders/sk/pxzc9l1n12xfhw7mpgdgdkdc0000gn/T//tdttr40.elf.LVtvPN.ltrans0.ltrans.o
 .data.message71
                0x000000000004ac07       0xe4 /var/folders/sk/pxzc9l1n12xfhw7mpgdgdkdc0000gn/T//tdttr40.elf.LVtvPN.ltrans0.ltrans.o
 .data.message277
                0x000000000004aceb       0x32 /var/folders/sk/pxzc9l1n12xfhw7mpgdgdkdc0000gn/T//tdttr40.elf.LVtvPN.ltrans0.ltrans.o
 .data.message95
                0x000000000004ad1d       0x53 /var/folders/sk/pxzc9l1n12xfhw7mpgdgdkdc0000gn/T//tdttr40.elf.LVtvPN.ltrans0.ltrans.o
 .data.message73
                0x000000000004ad70       0x73 /var/folders/sk/pxzc9l1n12xfhw7mpgdgdkdc0000gn/T//tdttr40.elf.LVtvPN.ltrans0.ltrans.o
 .data.message76
                0x000000000004ade3       0x22 /var/folders/sk/pxzc9l1n12xfhw7mpgdgdkdc0000gn/T//tdttr40.elf.LVtvPN.ltrans0.ltrans.o
 .data.message75
                0x000000000004ae05       0x3a /var/folders/sk/pxzc9l1n12xfhw7mpgdgdkdc0000gn/T//tdttr40.elf.LVtvPN.ltrans0.ltrans.o
 .data.message74
                0x000000000004ae3f       0x7b /var/folders/sk/pxzc9l1n12xfhw7mpgdgdkdc0000gn/T//tdttr40.elf.LVtvPN.ltrans0.ltrans.o
 .data.message279
                0x000000000004aeba        0xf /var/folders/sk/pxzc9l1n12xfhw7mpgdgdkdc0000gn/T//tdttr40.elf.LVtvPN.ltrans0.ltrans.o
 .data.message33
                0x000000000004aec9       0x3b /var/folders/sk/pxzc9l1n12xfhw7mpgdgdkdc0000gn/T//tdttr40.elf.LVtvPN.ltrans0.ltrans.o
 .data.message287
                0x000000000004af04        0xc /var/folders/sk/pxzc9l1n12xfhw7mpgdgdkdc0000gn/T//tdttr40.elf.LVtvPN.ltrans0.ltrans.o
 .data.message82
                0x000000000004af10       0x4c /var/folders/sk/pxzc9l1n12xfhw7mpgdgdkdc0000gn/T//tdttr40.elf.LVtvPN.ltrans0.ltrans.o
 .data.message278
                0x000000000004af5c       0x7b /var/folders/sk/pxzc9l1n12xfhw7mpgdgdkdc0000gn/T//tdttr40.elf.LVtvPN.ltrans0.ltrans.o
 .data.message96
                0x000000000004afd7       0x71 /var/folders/sk/pxzc9l1n12xfhw7mpgdgdkdc0000gn/T//tdttr40.elf.LVtvPN.ltrans0.ltrans.o
 .data.message94
                0x000000000004b048       0x9d /var/folders/sk/pxzc9l1n12xfhw7mpgdgdkdc0000gn/T//tdttr40.elf.LVtvPN.ltrans0.ltrans.o
 .data.message280
                0x000000000004b0e5       0x1f /var/folders/sk/pxzc9l1n12xfhw7mpgdgdkdc0000gn/T//tdttr40.elf.LVtvPN.ltrans0.ltrans.o
 .data.message62
                0x000000000004b104       0xde /var/folders/sk/pxzc9l1n12xfhw7mpgdgdkdc0000gn/T//tdttr40.elf.LVtvPN.ltrans0.ltrans.o
 .data.message276
                0x000000000004b1e2       0x48 /var/folders/sk/pxzc9l1n12xfhw7mpgdgdkdc0000gn/T//tdttr40.elf.LVtvPN.ltrans0.ltrans.o
 .data.message61
                0x000000000004b22a       0x70 /var/folders/sk/pxzc9l1n12xfhw7mpgdgdkdc0000gn/T//tdttr40.elf.LVtvPN.ltrans0.ltrans.o
 .data.message275
                0x000000000004b29a       0x47 /var/folders/sk/pxzc9l1n12xfhw7mpgdgdkdc0000gn/T//tdttr40.elf.LVtvPN.ltrans0.ltrans.o
 .data.message274
                0x000000000004b2e1       0x15 /var/folders/sk/pxzc9l1n12xfhw7mpgdgdkdc0000gn/T//tdttr40.elf.LVtvPN.ltrans0.ltrans.o
 .data.message81
                0x000000000004b2f6       0x27 /var/folders/sk/pxzc9l1n12xfhw7mpgdgdkdc0000gn/T//tdttr40.elf.LVtvPN.ltrans0.ltrans.o
 .data.message84
                0x000000000004b31d       0x1a /var/folders/sk/pxzc9l1n12xfhw7mpgdgdkdc0000gn/T//tdttr40.elf.LVtvPN.ltrans0.ltrans.o
 .data.message80
                0x000000000004b337       0x9b /var/folders/sk/pxzc9l1n12xfhw7mpgdgdkdc0000gn/T//tdttr40.elf.LVtvPN.ltrans0.ltrans.o
 .data.message78
                0x000000000004b3d2       0x41 /var/folders/sk/pxzc9l1n12xfhw7mpgdgdkdc0000gn/T//tdttr40.elf.LVtvPN.ltrans0.ltrans.o
 .data.message77
                0x000000000004b413       0x2e /var/folders/sk/pxzc9l1n12xfhw7mpgdgdkdc0000gn/T//tdttr40.elf.LVtvPN.ltrans0.ltrans.o
 .data.message282
                0x000000000004b441       0x11 /var/folders/sk/pxzc9l1n12xfhw7mpgdgdkdc0000gn/T//tdttr40.elf.LVtvPN.ltrans0.ltrans.o
 .data.message281
                0x000000000004b452       0x1b /var/folders/sk/pxzc9l1n12xfhw7mpgdgdkdc0000gn/T//tdttr40.elf.LVtvPN.ltrans0.ltrans.o
 .data.message90
                0x000000000004b46d       0x23 /var/folders/sk/pxzc9l1n12xfhw7mpgdgdkdc0000gn/T//tdttr40.elf.LVtvPN.ltrans0.ltrans.o
 .data.message273
                0x000000000004b490       0x53 /var/folders/sk/pxzc9l1n12xfhw7mpgdgdkdc0000gn/T//tdttr40.elf.LVtvPN.ltrans0.ltrans.o
 .data.message149
                0x000000000004b4e3       0x56 /var/folders/sk/pxzc9l1n12xfhw7mpgdgdkdc0000gn/T//tdttr40.elf.LVtvPN.ltrans0.ltrans.o
 .data.message89
                0x000000000004b539       0x33 /var/folders/sk/pxzc9l1n12xfhw7mpgdgdkdc0000gn/T//tdttr40.elf.LVtvPN.ltrans0.ltrans.o
 .data.message88
                0x000000000004b56c       0x16 /var/folders/sk/pxzc9l1n12xfhw7mpgdgdkdc0000gn/T//tdttr40.elf.LVtvPN.ltrans0.ltrans.o
 .data.message87
                0x000000000004b582       0x57 /var/folders/sk/pxzc9l1n12xfhw7mpgdgdkdc0000gn/T//tdttr40.elf.LVtvPN.ltrans0.ltrans.o
 .data.message58
                0x000000000004b5d9       0x43 /var/folders/sk/pxzc9l1n12xfhw7mpgdgdkdc0000gn/T//tdttr40.elf.LVtvPN.ltrans0.ltrans.o
 .data.message55
                0x000000000004b61c       0x1b /var/folders/sk/pxzc9l1n12xfhw7mpgdgdkdc0000gn/T//tdttr40.elf.LVtvPN.ltrans0.ltrans.o
 .data.message402
                0x000000000004b637       0x62 /var/folders/sk/pxzc9l1n12xfhw7mpgdgdkdc0000gn/T//tdttr40.elf.LVtvPN.ltrans0.ltrans.o
 .data.message401
                0x000000000004b699       0x1d /var/folders/sk/pxzc9l1n12xfhw7mpgdgdkdc0000gn/T//tdttr40.elf.LVtvPN.ltrans0.ltrans.o
 .data.message286
                0x000000000004b6b6       0x26 /var/folders/sk/pxzc9l1n12xfhw7mpgdgdkdc0000gn/T//tdttr40.elf.LVtvPN.ltrans0.ltrans.o
 .data.message210
                0x000000000004b6dc       0x2f /var/folders/sk/pxzc9l1n12xfhw7mpgdgdkdc0000gn/T//tdttr40.elf.LVtvPN.ltrans0.ltrans.o
 .data.message283
                0x000000000004b70b       0x35 /var/folders/sk/pxzc9l1n12xfhw7mpgdgdkdc0000gn/T//tdttr40.elf.LVtvPN.ltrans0.ltrans.o
 .data.message54
                0x000000000004b740       0xce /var/folders/sk/pxzc9l1n12xfhw7mpgdgdkdc0000gn/T//tdttr40.elf.LVtvPN.ltrans0.ltrans.o
 .data.message53
                0x000000000004b80e       0x1a /var/folders/sk/pxzc9l1n12xfhw7mpgdgdkdc0000gn/T//tdttr40.elf.LVtvPN.ltrans0.ltrans.o
 .data.message229
                0x000000000004b828       0x1e /var/folders/sk/pxzc9l1n12xfhw7mpgdgdkdc0000gn/T//tdttr40.elf.LVtvPN.ltrans0.ltrans.o
 .data.message52
                0x000000000004b846       0x13 /var/folders/sk/pxzc9l1n12xfhw7mpgdgdkdc0000gn/T//tdttr40.elf.LVtvPN.ltrans0.ltrans.o
 .data.message102
                0x000000000004b859       0x1f /var/folders/sk/pxzc9l1n12xfhw7mpgdgdkdc0000gn/T//tdttr40.elf.LVtvPN.ltrans0.ltrans.o
 .data.message101
                0x000000000004b878       0xef /var/folders/sk/pxzc9l1n12xfhw7mpgdgdkdc0000gn/T//tdttr40.elf.LVtvPN.ltrans0.ltrans.o
 .data.message51
                0x000000000004b967       0xfd /var/folders/sk/pxzc9l1n12xfhw7mpgdgdkdc0000gn/T//tdttr40.elf.LVtvPN.ltrans0.ltrans.o
 .data.message148
                0x000000000004ba64       0x44 /var/folders/sk/pxzc9l1n12xfhw7mpgdgdkdc0000gn/T//tdttr40.elf.LVtvPN.ltrans0.ltrans.o
 .data.message6
                0x000000000004baa8       0x17 /var/folders/sk/pxzc9l1n12xfhw7mpgdgdkdc0000gn/T//tdttr40.elf.LVtvPN.ltrans0.ltrans.o
 .data.message30
                0x000000000004babf       0x7c /var/folders/sk/pxzc9l1n12xfhw7mpgdgdkdc0000gn/T//tdttr40.elf.LVtvPN.ltrans0.ltrans.o
 .data.message147
                0x000000000004bb3b       0x21 /var/folders/sk/pxzc9l1n12xfhw7mpgdgdkdc0000gn/T//tdttr40.elf.LVtvPN.ltrans0.ltrans.o
 .data.message260
                0x000000000004bb5c       0x1a /var/folders/sk/pxzc9l1n12xfhw7mpgdgdkdc0000gn/T//tdttr40.elf.LVtvPN.ltrans0.ltrans.o
 .data.message257
                0x000000000004bb76       0x72 /var/folders/sk/pxzc9l1n12xfhw7mpgdgdkdc0000gn/T//tdttr40.elf.LVtvPN.ltrans0.ltrans.o
 .data.message256
                0x000000000004bbe8       0x1e /var/folders/sk/pxzc9l1n12xfhw7mpgdgdkdc0000gn/T//tdttr40.elf.LVtvPN.ltrans0.ltrans.o
 .data.message13
                0x000000000004bc06       0x12 /var/folders/sk/pxzc9l1n12xfhw7mpgdgdkdc0000gn/T//tdttr40.elf.LVtvPN.ltrans0.ltrans.o
 .data.message24
                0x000000000004bc18       0x35 /var/folders/sk/pxzc9l1n12xfhw7mpgdgdkdc0000gn/T//tdttr40.elf.LVtvPN.ltrans0.ltrans.o
 .data.message9
                0x000000000004bc4d       0x1d /var/folders/sk/pxzc9l1n12xfhw7mpgdgdkdc0000gn/T//tdttr40.elf.LVtvPN.ltrans0.ltrans.o
 .data.message23
                0x000000000004bc6a       0x4a /var/folders/sk/pxzc9l1n12xfhw7mpgdgdkdc0000gn/T//tdttr40.elf.LVtvPN.ltrans0.ltrans.o
 .data.message22
                0x000000000004bcb4       0x58 /var/folders/sk/pxzc9l1n12xfhw7mpgdgdkdc0000gn/T//tdttr40.elf.LVtvPN.ltrans0.ltrans.o
 .data.message258
                0x000000000004bd0c       0x28 /var/folders/sk/pxzc9l1n12xfhw7mpgdgdkdc0000gn/T//tdttr40.elf.LVtvPN.ltrans0.ltrans.o
 .data.message403
                0x000000000004bd34       0x60 /var/folders/sk/pxzc9l1n12xfhw7mpgdgdkdc0000gn/T//tdttr40.elf.LVtvPN.ltrans0.ltrans.o
 .data.message507
                0x000000000004bd94       0x16 /var/folders/sk/pxzc9l1n12xfhw7mpgdgdkdc0000gn/T//tdttr40.elf.LVtvPN.ltrans0.ltrans.o
 .data.message255
                0x000000000004bdaa       0x11 /var/folders/sk/pxzc9l1n12xfhw7mpgdgdkdc0000gn/T//tdttr40.elf.LVtvPN.ltrans0.ltrans.o
 .data.message239
                0x000000000004bdbb       0x17 /var/folders/sk/pxzc9l1n12xfhw7mpgdgdkdc0000gn/T//tdttr40.elf.LVtvPN.ltrans0.ltrans.o
 .data.message220
                0x000000000004bdd2       0x15 /var/folders/sk/pxzc9l1n12xfhw7mpgdgdkdc0000gn/T//tdttr40.elf.LVtvPN.ltrans0.ltrans.o
 .data.message221
                0x000000000004bde7       0x27 /var/folders/sk/pxzc9l1n12xfhw7mpgdgdkdc0000gn/T//tdttr40.elf.LVtvPN.ltrans0.ltrans.o
 .data.message18
                0x000000000004be0e        0xb /var/folders/sk/pxzc9l1n12xfhw7mpgdgdkdc0000gn/T//tdttr40.elf.LVtvPN.ltrans0.ltrans.o
 .data.message254
                0x000000000004be19       0x36 /var/folders/sk/pxzc9l1n12xfhw7mpgdgdkdc0000gn/T//tdttr40.elf.LVtvPN.ltrans0.ltrans.o
 .data.message16
                0x000000000004be4f       0x36 /var/folders/sk/pxzc9l1n12xfhw7mpgdgdkdc0000gn/T//tdttr40.elf.LVtvPN.ltrans0.ltrans.o
 .data.message15
                0x000000000004be85       0x24 /var/folders/sk/pxzc9l1n12xfhw7mpgdgdkdc0000gn/T//tdttr40.elf.LVtvPN.ltrans0.ltrans.o
 .data.message14
                0x000000000004bea9       0x10 /var/folders/sk/pxzc9l1n12xfhw7mpgdgdkdc0000gn/T//tdttr40.elf.LVtvPN.ltrans0.ltrans.o
 .data.message12
                0x000000000004beb9       0x22 /var/folders/sk/pxzc9l1n12xfhw7mpgdgdkdc0000gn/T//tdttr40.elf.LVtvPN.ltrans0.ltrans.o
 .data.message11
                0x000000000004bedb       0x1e /var/folders/sk/pxzc9l1n12xfhw7mpgdgdkdc0000gn/T//tdttr40.elf.LVtvPN.ltrans0.ltrans.o
 .data.message10
                0x000000000004bef9       0x6e /var/folders/sk/pxzc9l1n12xfhw7mpgdgdkdc0000gn/T//tdttr40.elf.LVtvPN.ltrans0.ltrans.o
 .data.message230
                0x000000000004bf67       0x25 /var/folders/sk/pxzc9l1n12xfhw7mpgdgdkdc0000gn/T//tdttr40.elf.LVtvPN.ltrans0.ltrans.o
 .data.message253
                0x000000000004bf8c       0x16 /var/folders/sk/pxzc9l1n12xfhw7mpgdgdkdc0000gn/T//tdttr40.elf.LVtvPN.ltrans0.ltrans.o
 .data.message21
                0x000000000004bfa2       0x17 /var/folders/sk/pxzc9l1n12xfhw7mpgdgdkdc0000gn/T//tdttr40.elf.LVtvPN.ltrans0.ltrans.o
 .data.message20
                0x000000000004bfb9       0x3c /var/folders/sk/pxzc9l1n12xfhw7mpgdgdkdc0000gn/T//tdttr40.elf.LVtvPN.ltrans0.ltrans.o
 .data.message19
                0x000000000004bff5       0x1b /var/folders/sk/pxzc9l1n12xfhw7mpgdgdkdc0000gn/T//tdttr40.elf.LVtvPN.ltrans0.ltrans.o
 .data.message405
                0x000000000004c010       0x22 /var/folders/sk/pxzc9l1n12xfhw7mpgdgdkdc0000gn/T//tdttr40.elf.LVtvPN.ltrans0.ltrans.o
 .data.message32
                0x000000000004c032       0x41 /var/folders/sk/pxzc9l1n12xfhw7mpgdgdkdc0000gn/T//tdttr40.elf.LVtvPN.ltrans0.ltrans.o
 .data.message2
                0x000000000004c073       0x2a /var/folders/sk/pxzc9l1n12xfhw7mpgdgdkdc0000gn/T//tdttr40.elf.LVtvPN.ltrans0.ltrans.o
 .data.message3
                0x000000000004c09d       0x20 /var/folders/sk/pxzc9l1n12xfhw7mpgdgdkdc0000gn/T//tdttr40.elf.LVtvPN.ltrans0.ltrans.o
 .data.message267
                0x000000000004c0bd       0x67 /var/folders/sk/pxzc9l1n12xfhw7mpgdgdkdc0000gn/T//tdttr40.elf.LVtvPN.ltrans0.ltrans.o
 .data.message7
                0x000000000004c124        0xc /var/folders/sk/pxzc9l1n12xfhw7mpgdgdkdc0000gn/T//tdttr40.elf.LVtvPN.ltrans0.ltrans.o
 .data.message266
                0x000000000004c130       0x49 /var/folders/sk/pxzc9l1n12xfhw7mpgdgdkdc0000gn/T//tdttr40.elf.LVtvPN.ltrans0.ltrans.o
 .data.message400
                0x000000000004c179       0x38 /var/folders/sk/pxzc9l1n12xfhw7mpgdgdkdc0000gn/T//tdttr40.elf.LVtvPN.ltrans0.ltrans.o
 .data.message1
                0x000000000004c1b1       0x60 /var/folders/sk/pxzc9l1n12xfhw7mpgdgdkdc0000gn/T//tdttr40.elf.LVtvPN.ltrans0.ltrans.o
 .data.message264
                0x000000000004c211       0x1e /var/folders/sk/pxzc9l1n12xfhw7mpgdgdkdc0000gn/T//tdttr40.elf.LVtvPN.ltrans0.ltrans.o
 .data.message263
                0x000000000004c22f       0x11 /var/folders/sk/pxzc9l1n12xfhw7mpgdgdkdc0000gn/T//tdttr40.elf.LVtvPN.ltrans0.ltrans.o
 .data.message262
                0x000000000004c240       0x3b /var/folders/sk/pxzc9l1n12xfhw7mpgdgdkdc0000gn/T//tdttr40.elf.LVtvPN.ltrans0.ltrans.o
 .data.message508
                0x000000000004c27b       0x13 /var/folders/sk/pxzc9l1n12xfhw7mpgdgdkdc0000gn/T//tdttr40.elf.LVtvPN.ltrans0.ltrans.o
 .data.message261
                0x000000000004c28e       0x2b /var/folders/sk/pxzc9l1n12xfhw7mpgdgdkdc0000gn/T//tdttr40.elf.LVtvPN.ltrans0.ltrans.o
 .data.message31
                0x000000000004c2b9       0x29 /var/folders/sk/pxzc9l1n12xfhw7mpgdgdkdc0000gn/T//tdttr40.elf.LVtvPN.ltrans0.ltrans.o
 .data.message27
                0x000000000004c2e2       0x40 /var/folders/sk/pxzc9l1n12xfhw7mpgdgdkdc0000gn/T//tdttr40.elf.LVtvPN.ltrans0.ltrans.o
 .data.message29
                0x000000000004c322       0xdc /var/folders/sk/pxzc9l1n12xfhw7mpgdgdkdc0000gn/T//tdttr40.elf.LVtvPN.ltrans0.ltrans.o
 .data.message28
                0x000000000004c3fe       0xed /var/folders/sk/pxzc9l1n12xfhw7mpgdgdkdc0000gn/T//tdttr40.elf.LVtvPN.ltrans0.ltrans.o
 .data.message259
                0x000000000004c4eb       0x3c /var/folders/sk/pxzc9l1n12xfhw7mpgdgdkdc0000gn/T//tdttr40.elf.LVtvPN.ltrans0.ltrans.o
 .data.message26
                0x000000000004c527       0x64 /var/folders/sk/pxzc9l1n12xfhw7mpgdgdkdc0000gn/T//tdttr40.elf.LVtvPN.ltrans0.ltrans.o
 .data.message25
                0x000000000004c58b       0x23 /var/folders/sk/pxzc9l1n12xfhw7mpgdgdkdc0000gn/T//tdttr40.elf.LVtvPN.ltrans0.ltrans.o
 .data.message5
                0x000000000004c5ae       0x30 /var/folders/sk/pxzc9l1n12xfhw7mpgdgdkdc0000gn/T//tdttr40.elf.LVtvPN.ltrans0.ltrans.o
 .data.message4
                0x000000000004c5de       0x1f /var/folders/sk/pxzc9l1n12xfhw7mpgdgdkdc0000gn/T//tdttr40.elf.LVtvPN.ltrans0.ltrans.o
 .data.areyousure
                0x000000000004c5fd       0x1a /var/folders/sk/pxzc9l1n12xfhw7mpgdgdkdc0000gn/T//tdttr40.elf.LVtvPN.ltrans0.ltrans.o
 .data.message1008
                0x000000000004c617        0xf /var/folders/sk/pxzc9l1n12xfhw7mpgdgdkdc0000gn/T//tdttr40.elf.LVtvPN.ltrans0.ltrans.o
 .data.message524
                0x000000000004c626       0x18 /var/folders/sk/pxzc9l1n12xfhw7mpgdgdkdc0000gn/T//tdttr40.elf.LVtvPN.ltrans0.ltrans.o
 .data.message406
                0x000000000004c63e        0xe /var/folders/sk/pxzc9l1n12xfhw7mpgdgdkdc0000gn/T//tdttr40.elf.LVtvPN.ltrans0.ltrans.o
 .data.message515
                0x000000000004c64c       0x4a /var/folders/sk/pxzc9l1n12xfhw7mpgdgdkdc0000gn/T//tdttr40.elf.LVtvPN.ltrans0.ltrans.o
 .data.message520
                0x000000000004c696        0x9 /var/folders/sk/pxzc9l1n12xfhw7mpgdgdkdc0000gn/T//tdttr40.elf.LVtvPN.ltrans0.ltrans.o
 .data.message231
                0x000000000004c69f       0x1a /var/folders/sk/pxzc9l1n12xfhw7mpgdgdkdc0000gn/T//tdttr40.elf.LVtvPN.ltrans0.ltrans.o
 .data.message98
                0x000000000004c6b9       0x4e /var/folders/sk/pxzc9l1n12xfhw7mpgdgdkdc0000gn/T//tdttr40.elf.LVtvPN.ltrans0.ltrans.o
 .data.message100
                0x000000000004c707       0x25 /var/folders/sk/pxzc9l1n12xfhw7mpgdgdkdc0000gn/T//tdttr40.elf.LVtvPN.ltrans0.ltrans.o
 .data.message97
                0x000000000004c72c       0x7a /var/folders/sk/pxzc9l1n12xfhw7mpgdgdkdc0000gn/T//tdttr40.elf.LVtvPN.ltrans0.ltrans.o
 .data.message91
                0x000000000004c7a6       0x13 /var/folders/sk/pxzc9l1n12xfhw7mpgdgdkdc0000gn/T//tdttr40.elf.LVtvPN.ltrans0.ltrans.o
 .data.message522
                0x000000000004c7b9       0x13 /var/folders/sk/pxzc9l1n12xfhw7mpgdgdkdc0000gn/T//tdttr40.elf.LVtvPN.ltrans0.ltrans.o
 .data.message8
                0x000000000004c7cc       0x1d /var/folders/sk/pxzc9l1n12xfhw7mpgdgdkdc0000gn/T//tdttr40.elf.LVtvPN.ltrans0.ltrans.o
 .data.message119
                0x000000000004c7e9       0x5c /var/folders/sk/pxzc9l1n12xfhw7mpgdgdkdc0000gn/T//tdttr40.elf.LVtvPN.ltrans0.ltrans.o
 .data.message118
                0x000000000004c845       0x72 /var/folders/sk/pxzc9l1n12xfhw7mpgdgdkdc0000gn/T//tdttr40.elf.LVtvPN.ltrans0.ltrans.o
 .data.message111
                0x000000000004c8b7       0x25 /var/folders/sk/pxzc9l1n12xfhw7mpgdgdkdc0000gn/T//tdttr40.elf.LVtvPN.ltrans0.ltrans.o
 .data.message60
                0x000000000004c8dc       0x81 /var/folders/sk/pxzc9l1n12xfhw7mpgdgdkdc0000gn/T//tdttr40.elf.LVtvPN.ltrans0.ltrans.o
 .data.message289
                0x000000000004c95d       0x35 /var/folders/sk/pxzc9l1n12xfhw7mpgdgdkdc0000gn/T//tdttr40.elf.LVtvPN.ltrans0.ltrans.o
 .data.message99
                0x000000000004c992       0x44 /var/folders/sk/pxzc9l1n12xfhw7mpgdgdkdc0000gn/T//tdttr40.elf.LVtvPN.ltrans0.ltrans.o
 .data.message92
                0x000000000004c9d6       0x58 /var/folders/sk/pxzc9l1n12xfhw7mpgdgdkdc0000gn/T//tdttr40.elf.LVtvPN.ltrans0.ltrans.o
 .data.message59
                0x000000000004ca2e       0xb5 /var/folders/sk/pxzc9l1n12xfhw7mpgdgdkdc0000gn/T//tdttr40.elf.LVtvPN.ltrans0.ltrans.o
 .data.message57
                0x000000000004cae3       0x42 /var/folders/sk/pxzc9l1n12xfhw7mpgdgdkdc0000gn/T//tdttr40.elf.LVtvPN.ltrans0.ltrans.o
 .data.message269
                0x000000000004cb25       0x17 /var/folders/sk/pxzc9l1n12xfhw7mpgdgdkdc0000gn/T//tdttr40.elf.LVtvPN.ltrans0.ltrans.o
 .data.message1019
                0x000000000004cb3c        0xc /var/folders/sk/pxzc9l1n12xfhw7mpgdgdkdc0000gn/T//tdttr40.elf.LVtvPN.ltrans0.ltrans.o
 .data.message297
                0x000000000004cb48       0x21 /var/folders/sk/pxzc9l1n12xfhw7mpgdgdkdc0000gn/T//tdttr40.elf.LVtvPN.ltrans0.ltrans.o
 .data.message222
                0x000000000004cb69       0x2a /var/folders/sk/pxzc9l1n12xfhw7mpgdgdkdc0000gn/T//tdttr40.elf.LVtvPN.ltrans0.ltrans.o
 .data.message223
                0x000000000004cb93       0x1e /var/folders/sk/pxzc9l1n12xfhw7mpgdgdkdc0000gn/T//tdttr40.elf.LVtvPN.ltrans0.ltrans.o
 .data.message224
                0x000000000004cbb1       0x2b /var/folders/sk/pxzc9l1n12xfhw7mpgdgdkdc0000gn/T//tdttr40.elf.LVtvPN.ltrans0.ltrans.o
 .data.message227
                0x000000000004cbdc       0x13 /var/folders/sk/pxzc9l1n12xfhw7mpgdgdkdc0000gn/T//tdttr40.elf.LVtvPN.ltrans0.ltrans.o
 .data.message226
                0x000000000004cbef       0x22 /var/folders/sk/pxzc9l1n12xfhw7mpgdgdkdc0000gn/T//tdttr40.elf.LVtvPN.ltrans0.ltrans.o
 .data.message228
                0x000000000004cc11       0x4c /var/folders/sk/pxzc9l1n12xfhw7mpgdgdkdc0000gn/T//tdttr40.elf.LVtvPN.ltrans0.ltrans.o
 .data.message225
                0x000000000004cc5d       0x18 /var/folders/sk/pxzc9l1n12xfhw7mpgdgdkdc0000gn/T//tdttr40.elf.LVtvPN.ltrans0.ltrans.o
 .data.message268
                0x000000000004cc75       0x28 /var/folders/sk/pxzc9l1n12xfhw7mpgdgdkdc0000gn/T//tdttr40.elf.LVtvPN.ltrans0.ltrans.o
 .data.message509
                0x000000000004cc9d       0x35 /var/folders/sk/pxzc9l1n12xfhw7mpgdgdkdc0000gn/T//tdttr40.elf.LVtvPN.ltrans0.ltrans.o
 .data.message510
                0x000000000004ccd2       0x3d /var/folders/sk/pxzc9l1n12xfhw7mpgdgdkdc0000gn/T//tdttr40.elf.LVtvPN.ltrans0.ltrans.o
 .data.message511
                0x000000000004cd0f        0x7 /var/folders/sk/pxzc9l1n12xfhw7mpgdgdkdc0000gn/T//tdttr40.elf.LVtvPN.ltrans0.ltrans.o
 .data.message512
                0x000000000004cd16       0x34 /var/folders/sk/pxzc9l1n12xfhw7mpgdgdkdc0000gn/T//tdttr40.elf.LVtvPN.ltrans0.ltrans.o
 .data.message504
                0x000000000004cd4a       0x2d /var/folders/sk/pxzc9l1n12xfhw7mpgdgdkdc0000gn/T//tdttr40.elf.LVtvPN.ltrans0.ltrans.o
 .data.message502
                0x000000000004cd77        0x4 /var/folders/sk/pxzc9l1n12xfhw7mpgdgdkdc0000gn/T//tdttr40.elf.LVtvPN.ltrans0.ltrans.o
 .data.message265
                0x000000000004cd7b       0x37 /var/folders/sk/pxzc9l1n12xfhw7mpgdgdkdc0000gn/T//tdttr40.elf.LVtvPN.ltrans0.ltrans.o
 .data.message252
                0x000000000004cdb2       0x54 /var/folders/sk/pxzc9l1n12xfhw7mpgdgdkdc0000gn/T//tdttr40.elf.LVtvPN.ltrans0.ltrans.o
 .data.message517
                0x000000000004ce06        0xb /var/folders/sk/pxzc9l1n12xfhw7mpgdgdkdc0000gn/T//tdttr40.elf.LVtvPN.ltrans0.ltrans.o
 .data.message516
                0x000000000004ce11       0x11 /var/folders/sk/pxzc9l1n12xfhw7mpgdgdkdc0000gn/T//tdttr40.elf.LVtvPN.ltrans0.ltrans.o
 .data.message1000
                0x000000000004ce22        0x5 /var/folders/sk/pxzc9l1n12xfhw7mpgdgdkdc0000gn/T//tdttr40.elf.LVtvPN.ltrans0.ltrans.o
 .data.message251
                0x000000000004ce27       0x59 /var/folders/sk/pxzc9l1n12xfhw7mpgdgdkdc0000gn/T//tdttr40.elf.LVtvPN.ltrans0.ltrans.o
 .data.message105
                0x000000000004ce80       0x37 /var/folders/sk/pxzc9l1n12xfhw7mpgdgdkdc0000gn/T//tdttr40.elf.LVtvPN.ltrans0.ltrans.o
 .data.message238
                0x000000000004ceb7        0xc /var/folders/sk/pxzc9l1n12xfhw7mpgdgdkdc0000gn/T//tdttr40.elf.LVtvPN.ltrans0.ltrans.o
 .data.message237
                0x000000000004cec3       0x7a /var/folders/sk/pxzc9l1n12xfhw7mpgdgdkdc0000gn/T//tdttr40.elf.LVtvPN.ltrans0.ltrans.o
 .data.message236
                0x000000000004cf3d       0xbf /var/folders/sk/pxzc9l1n12xfhw7mpgdgdkdc0000gn/T//tdttr40.elf.LVtvPN.ltrans0.ltrans.o
 .data.message235
                0x000000000004cffc       0x23 /var/folders/sk/pxzc9l1n12xfhw7mpgdgdkdc0000gn/T//tdttr40.elf.LVtvPN.ltrans0.ltrans.o
 .data.message234
                0x000000000004d01f      0x20e /var/folders/sk/pxzc9l1n12xfhw7mpgdgdkdc0000gn/T//tdttr40.elf.LVtvPN.ltrans0.ltrans.o
 .data.message233
                0x000000000004d22d       0x3f /var/folders/sk/pxzc9l1n12xfhw7mpgdgdkdc0000gn/T//tdttr40.elf.LVtvPN.ltrans0.ltrans.o
 .data.message505
                0x000000000004d26c        0x8 /var/folders/sk/pxzc9l1n12xfhw7mpgdgdkdc0000gn/T//tdttr40.elf.LVtvPN.ltrans0.ltrans.o
 .data.message232
                0x000000000004d274       0x26 /var/folders/sk/pxzc9l1n12xfhw7mpgdgdkdc0000gn/T//tdttr40.elf.LVtvPN.ltrans0.ltrans.o
 .data.message1033
                0x000000000004d29a       0x14 /var/folders/sk/pxzc9l1n12xfhw7mpgdgdkdc0000gn/T//tdttr40.elf.LVtvPN.ltrans0.ltrans.o
 .data.message1018
                0x000000000004d2ae        0x5 /var/folders/sk/pxzc9l1n12xfhw7mpgdgdkdc0000gn/T//tdttr40.elf.LVtvPN.ltrans0.ltrans.o
 .data.message1032
                0x000000000004d2b3        0xd /var/folders/sk/pxzc9l1n12xfhw7mpgdgdkdc0000gn/T//tdttr40.elf.LVtvPN.ltrans0.ltrans.o
 .data.message518
                0x000000000004d2c0       0x1e /var/folders/sk/pxzc9l1n12xfhw7mpgdgdkdc0000gn/T//tdttr40.elf.LVtvPN.ltrans0.ltrans.o
 .data.message1010
                0x000000000004d2de        0x8 /var/folders/sk/pxzc9l1n12xfhw7mpgdgdkdc0000gn/T//tdttr40.elf.LVtvPN.ltrans0.ltrans.o
 .data.message1009
                0x000000000004d2e6        0xc /var/folders/sk/pxzc9l1n12xfhw7mpgdgdkdc0000gn/T//tdttr40.elf.LVtvPN.ltrans0.ltrans.o
 .data.message1012
                0x000000000004d2f2        0xf /var/folders/sk/pxzc9l1n12xfhw7mpgdgdkdc0000gn/T//tdttr40.elf.LVtvPN.ltrans0.ltrans.o
 .data.message1020
                0x000000000004d301        0x9 /var/folders/sk/pxzc9l1n12xfhw7mpgdgdkdc0000gn/T//tdttr40.elf.LVtvPN.ltrans0.ltrans.o
 .data.message1031
                0x000000000004d30a        0x9 /var/folders/sk/pxzc9l1n12xfhw7mpgdgdkdc0000gn/T//tdttr40.elf.LVtvPN.ltrans0.ltrans.o
 .data.message167
                0x000000000004d313       0x3a /var/folders/sk/pxzc9l1n12xfhw7mpgdgdkdc0000gn/T//tdttr40.elf.LVtvPN.ltrans0.ltrans.o
 .data.message138
                0x000000000004d34d       0x10 /var/folders/sk/pxzc9l1n12xfhw7mpgdgdkdc0000gn/T//tdttr40.elf.LVtvPN.ltrans0.ltrans.o
 .data.message285
                0x000000000004d35d       0x36 /var/folders/sk/pxzc9l1n12xfhw7mpgdgdkdc0000gn/T//tdttr40.elf.LVtvPN.ltrans0.ltrans.o
 .data.message140
                0x000000000004d393       0x58 /var/folders/sk/pxzc9l1n12xfhw7mpgdgdkdc0000gn/T//tdttr40.elf.LVtvPN.ltrans0.ltrans.o
 .data.message139
                0x000000000004d3eb       0xa8 /var/folders/sk/pxzc9l1n12xfhw7mpgdgdkdc0000gn/T//tdttr40.elf.LVtvPN.ltrans0.ltrans.o
 .data.message115
                0x000000000004d493       0x18 /var/folders/sk/pxzc9l1n12xfhw7mpgdgdkdc0000gn/T//tdttr40.elf.LVtvPN.ltrans0.ltrans.o
 .data.message284
                0x000000000004d4ab       0x35 /var/folders/sk/pxzc9l1n12xfhw7mpgdgdkdc0000gn/T//tdttr40.elf.LVtvPN.ltrans0.ltrans.o
 .data.message85
                0x000000000004d4e0      0x2d6 /var/folders/sk/pxzc9l1n12xfhw7mpgdgdkdc0000gn/T//tdttr40.elf.LVtvPN.ltrans0.ltrans.o
 .data.message56
                0x000000000004d7b6       0x4c /var/folders/sk/pxzc9l1n12xfhw7mpgdgdkdc0000gn/T//tdttr40.elf.LVtvPN.ltrans0.ltrans.o
 .data.message506
                0x000000000004d802        0xd /var/folders/sk/pxzc9l1n12xfhw7mpgdgdkdc0000gn/T//tdttr40.elf.LVtvPN.ltrans0.ltrans.o
 .data.message503
                0x000000000004d80f        0xf /var/folders/sk/pxzc9l1n12xfhw7mpgdgdkdc0000gn/T//tdttr40.elf.LVtvPN.ltrans0.ltrans.o
 .data.message1007
                0x000000000004d81e       0x12 /var/folders/sk/pxzc9l1n12xfhw7mpgdgdkdc0000gn/T//tdttr40.elf.LVtvPN.ltrans0.ltrans.o
 .data.message1005
                0x000000000004d830        0xd /var/folders/sk/pxzc9l1n12xfhw7mpgdgdkdc0000gn/T//tdttr40.elf.LVtvPN.ltrans0.ltrans.o
 .data.message1006
                0x000000000004d83d        0xc /var/folders/sk/pxzc9l1n12xfhw7mpgdgdkdc0000gn/T//tdttr40.elf.LVtvPN.ltrans0.ltrans.o
 *fill*         0x000000000004d849        0x1 
 .data.obj      0x000000000004d84a      0x120 /var/folders/sk/pxzc9l1n12xfhw7mpgdgdkdc0000gn/T//tdttr40.elf.LVtvPN.ltrans0.ltrans.o
 .data.world    0x000000000004d96a      0x410 /var/folders/sk/pxzc9l1n12xfhw7mpgdgdkdc0000gn/T//tdttr40.elf.LVtvPN.ltrans0.ltrans.o
 *fill*         0x000000000004dd7a        0x2 
 .data          0x000000000004dd7c        0x0 /Users/davidebucci/Desktop/Synchronized/Vintage/Computing/Atari/ST/brown/lib/gcc/m68k-atariextrabrowner-elf/10.2.0/../../../../m68k-atariextrabrowner-elf/lib/m68000/libc.a(checkcpu.o)
 .data          0x000000000004dd7c        0x8 /Users/davidebucci/Desktop/Synchronized/Vintage/Computing/Atari/ST/brown/lib/gcc/m68k-atariextrabrowner-elf/10.2.0/../../../../m68k-atariextrabrowner-elf/lib/m68000/libc.a(crtinit.o)
 .data          0x000000000004dd84        0x0 /Users/davidebucci/Desktop/Synchronized/Vintage/Computing/Atari/ST/brown/lib/gcc/m68k-atariextrabrowner-elf/10.2.0/../../../../m68k-atariextrabrowner-elf/lib/m68000/libc.a(getenv.o)
 .data          0x000000000004dd84      0x12a /Users/davidebucci/Desktop/Synchronized/Vintage/Computing/Atari/ST/brown/lib/gcc/m68k-atariextrabrowner-elf/10.2.0/../../../../m68k-atariextrabrowner-elf/lib/m68000/libc.a(globals.o)
                0x000000000004dd84                ___stdio_head
                0x000000000004dd88                _stderr
                0x000000000004dde0                _stdout
                0x000000000004de38                _stdin
                0x000000000004de90                _program_invocation_short_name
                0x000000000004de94                _program_invocation_name
                0x000000000004de98                __app
                0x000000000004de9a                ___libc_argv
                0x000000000004dea6                ___libc_argc
                0x000000000004deaa                ___libc_enable_secure
 *fill*         0x000000000004deae        0x2 
 .data          0x000000000004deb0        0x0 /Users/davidebucci/Desktop/Synchronized/Vintage/Computing/Atari/ST/brown/lib/gcc/m68k-atariextrabrowner-elf/10.2.0/../../../../m68k-atariextrabrowner-elf/lib/m68000/libc.a(heapbase.o)
 .data          0x000000000004deb0       0x1b /Users/davidebucci/Desktop/Synchronized/Vintage/Computing/Atari/ST/brown/lib/gcc/m68k-atariextrabrowner-elf/10.2.0/../../../../m68k-atariextrabrowner-elf/lib/m68000/libc.a(ident.o)
                0x000000000004deb0                ___Ident_gnulib
 *fill*         0x000000000004decb        0x1 
 .data          0x000000000004decc        0x0 /Users/davidebucci/Desktop/Synchronized/Vintage/Computing/Atari/ST/brown/lib/gcc/m68k-atariextrabrowner-elf/10.2.0/../../../../m68k-atariextrabrowner-elf/lib/m68000/libc.a(ident_dummy_gem.o)
 .data          0x000000000004decc        0x0 /Users/davidebucci/Desktop/Synchronized/Vintage/Computing/Atari/ST/brown/lib/gcc/m68k-atariextrabrowner-elf/10.2.0/../../../../m68k-atariextrabrowner-elf/lib/m68000/libc.a(inistack.o)
 .data          0x000000000004decc        0x0 /Users/davidebucci/Desktop/Synchronized/Vintage/Computing/Atari/ST/brown/lib/gcc/m68k-atariextrabrowner-elf/10.2.0/../../../../m68k-atariextrabrowner-elf/lib/m68000/libc.a(main.o)
 .data          0x000000000004decc       0x14 /Users/davidebucci/Desktop/Synchronized/Vintage/Computing/Atari/ST/brown/lib/gcc/m68k-atariextrabrowner-elf/10.2.0/../../../../m68k-atariextrabrowner-elf/lib/m68000/libc.a(malloc.o)
                0x000000000004decc                __mchunk_free_list
 .data          0x000000000004dee0        0x0 /Users/davidebucci/Desktop/Synchronized/Vintage/Computing/Atari/ST/brown/lib/gcc/m68k-atariextrabrowner-elf/10.2.0/../../../../m68k-atariextrabrowner-elf/lib/m68000/libc.a(realloc.o)
 .data          0x000000000004dee0        0x0 /Users/davidebucci/Desktop/Synchronized/Vintage/Computing/Atari/ST/brown/lib/gcc/m68k-atariextrabrowner-elf/10.2.0/../../../../m68k-atariextrabrowner-elf/lib/m68000/libc.a(setstack.o)
 .data          0x000000000004dee0        0x4 /Users/davidebucci/Desktop/Synchronized/Vintage/Computing/Atari/ST/brown/lib/gcc/m68k-atariextrabrowner-elf/10.2.0/../../../../m68k-atariextrabrowner-elf/lib/m68000/libc.a(stksiz.o)
                0x000000000004dee0                __stksize
 .data          0x000000000004dee4        0x0 /Users/davidebucci/Desktop/Synchronized/Vintage/Computing/Atari/ST/brown/lib/gcc/m68k-atariextrabrowner-elf/10.2.0/../../../../m68k-atariextrabrowner-elf/lib/m68000/libc.a(unx2dos.o)
 .data          0x000000000004dee4        0x0 /Users/davidebucci/Desktop/Synchronized/Vintage/Computing/Atari/ST/brown/lib/gcc/m68k-atariextrabrowner-elf/10.2.0/../../../../m68k-atariextrabrowner-elf/lib/m68000/libc.a(initsig.o)
 .data          0x000000000004dee4        0x0 /Users/davidebucci/Desktop/Synchronized/Vintage/Computing/Atari/ST/brown/lib/gcc/m68k-atariextrabrowner-elf/10.2.0/../../../../m68k-atariextrabrowner-elf/lib/m68000/libc.a(binmode.o)
 .data          0x000000000004dee4        0x0 /Users/davidebucci/Desktop/Synchronized/Vintage/Computing/Atari/ST/brown/lib/gcc/m68k-atariextrabrowner-elf/10.2.0/../../../../m68k-atariextrabrowner-elf/lib/m68000/libc.a(defmode.o)
 .data          0x000000000004dee4        0x0 /Users/davidebucci/Desktop/Synchronized/Vintage/Computing/Atari/ST/brown/lib/gcc/m68k-atariextrabrowner-elf/10.2.0/../../../../m68k-atariextrabrowner-elf/lib/m68000/libc.a(fclose.o)
 .data          0x000000000004dee4        0x0 /Users/davidebucci/Desktop/Synchronized/Vintage/Computing/Atari/ST/brown/lib/gcc/m68k-atariextrabrowner-elf/10.2.0/../../../../m68k-atariextrabrowner-elf/lib/m68000/libc.a(fgets.o)
 .data          0x000000000004dee4        0x0 /Users/davidebucci/Desktop/Synchronized/Vintage/Computing/Atari/ST/brown/lib/gcc/m68k-atariextrabrowner-elf/10.2.0/../../../../m68k-atariextrabrowner-elf/lib/m68000/libc.a(fileno.o)
 .data          0x000000000004dee4        0x0 /Users/davidebucci/Desktop/Synchronized/Vintage/Computing/Atari/ST/brown/lib/gcc/m68k-atariextrabrowner-elf/10.2.0/../../../../m68k-atariextrabrowner-elf/lib/m68000/libc.a(fopen.o)
 .data          0x000000000004dee4        0x0 /Users/davidebucci/Desktop/Synchronized/Vintage/Computing/Atari/ST/brown/lib/gcc/m68k-atariextrabrowner-elf/10.2.0/../../../../m68k-atariextrabrowner-elf/lib/m68000/libc.a(getchar.o)
 .data          0x000000000004dee4        0x0 /Users/davidebucci/Desktop/Synchronized/Vintage/Computing/Atari/ST/brown/lib/gcc/m68k-atariextrabrowner-elf/10.2.0/../../../../m68k-atariextrabrowner-elf/lib/m68000/libc.a(internals.o)
 .data          0x000000000004dee4        0x0 /Users/davidebucci/Desktop/Synchronized/Vintage/Computing/Atari/ST/brown/lib/gcc/m68k-atariextrabrowner-elf/10.2.0/../../../../m68k-atariextrabrowner-elf/lib/m68000/libc.a(newstream.o)
 .data          0x000000000004dee4        0x0 /Users/davidebucci/Desktop/Synchronized/Vintage/Computing/Atari/ST/brown/lib/gcc/m68k-atariextrabrowner-elf/10.2.0/../../../../m68k-atariextrabrowner-elf/lib/m68000/libc.a(setvbuf.o)
 .data          0x000000000004dee4        0x0 /Users/davidebucci/Desktop/Synchronized/Vintage/Computing/Atari/ST/brown/lib/gcc/m68k-atariextrabrowner-elf/10.2.0/../../../../m68k-atariextrabrowner-elf/lib/m68000/libc.a(stdio_init.o)
 .data          0x000000000004dee4        0x0 /Users/davidebucci/Desktop/Synchronized/Vintage/Computing/Atari/ST/brown/lib/gcc/m68k-atariextrabrowner-elf/10.2.0/../../../../m68k-atariextrabrowner-elf/lib/m68000/libc.a(sysd-stdio.o)
 .data          0x000000000004dee4        0x0 /Users/davidebucci/Desktop/Synchronized/Vintage/Computing/Atari/ST/brown/lib/gcc/m68k-atariextrabrowner-elf/10.2.0/../../../../m68k-atariextrabrowner-elf/lib/m68000/libc.a(atoi.o)
 .data          0x000000000004dee4        0x0 /Users/davidebucci/Desktop/Synchronized/Vintage/Computing/Atari/ST/brown/lib/gcc/m68k-atariextrabrowner-elf/10.2.0/../../../../m68k-atariextrabrowner-elf/lib/m68000/libc.a(exit.o)
 .data          0x000000000004dee4        0x4 /Users/davidebucci/Desktop/Synchronized/Vintage/Computing/Atari/ST/brown/lib/gcc/m68k-atariextrabrowner-elf/10.2.0/../../../../m68k-atariextrabrowner-elf/lib/m68000/libc.a(rand.o)
 .data          0x000000000004dee8        0x0 /Users/davidebucci/Desktop/Synchronized/Vintage/Computing/Atari/ST/brown/lib/gcc/m68k-atariextrabrowner-elf/10.2.0/../../../../m68k-atariextrabrowner-elf/lib/m68000/libc.a(strtol.o)
 .data          0x000000000004dee8        0x0 /Users/davidebucci/Desktop/Synchronized/Vintage/Computing/Atari/ST/brown/lib/gcc/m68k-atariextrabrowner-elf/10.2.0/../../../../m68k-atariextrabrowner-elf/lib/m68000/libc.a(bcopy.o)
 .data          0x000000000004dee8        0x0 /Users/davidebucci/Desktop/Synchronized/Vintage/Computing/Atari/ST/brown/lib/gcc/m68k-atariextrabrowner-elf/10.2.0/../../../../m68k-atariextrabrowner-elf/lib/m68000/libc.a(bzero.o)
 .data          0x000000000004dee8        0x0 /Users/davidebucci/Desktop/Synchronized/Vintage/Computing/Atari/ST/brown/lib/gcc/m68k-atariextrabrowner-elf/10.2.0/../../../../m68k-atariextrabrowner-elf/lib/m68000/libc.a(memccpy.o)
 .data          0x000000000004dee8        0x0 /Users/davidebucci/Desktop/Synchronized/Vintage/Computing/Atari/ST/brown/lib/gcc/m68k-atariextrabrowner-elf/10.2.0/../../../../m68k-atariextrabrowner-elf/lib/m68000/libc.a(memset.o)
 .data          0x000000000004dee8        0x0 /Users/davidebucci/Desktop/Synchronized/Vintage/Computing/Atari/ST/brown/lib/gcc/m68k-atariextrabrowner-elf/10.2.0/../../../../m68k-atariextrabrowner-elf/lib/m68000/libc.a(strcmp.o)
 .data          0x000000000004dee8        0x0 /Users/davidebucci/Desktop/Synchronized/Vintage/Computing/Atari/ST/brown/lib/gcc/m68k-atariextrabrowner-elf/10.2.0/../../../../m68k-atariextrabrowner-elf/lib/m68000/libc.a(strlen.o)
 .data          0x000000000004dee8        0x0 /Users/davidebucci/Desktop/Synchronized/Vintage/Computing/Atari/ST/brown/lib/gcc/m68k-atariextrabrowner-elf/10.2.0/../../../../m68k-atariextrabrowner-elf/lib/m68000/libc.a(strncat.o)
 .data          0x000000000004dee8        0x0 /Users/davidebucci/Desktop/Synchronized/Vintage/Computing/Atari/ST/brown/lib/gcc/m68k-atariextrabrowner-elf/10.2.0/../../../../m68k-atariextrabrowner-elf/lib/m68000/libc.a(strncmp.o)
 .data          0x000000000004dee8        0x0 /Users/davidebucci/Desktop/Synchronized/Vintage/Computing/Atari/ST/brown/lib/gcc/m68k-atariextrabrowner-elf/10.2.0/../../../../m68k-atariextrabrowner-elf/lib/m68000/libc.a(strncpy.o)
 .data          0x000000000004dee8        0x0 /Users/davidebucci/Desktop/Synchronized/Vintage/Computing/Atari/ST/brown/lib/gcc/m68k-atariextrabrowner-elf/10.2.0/../../../../m68k-atariextrabrowner-elf/lib/m68000/libc.a(strrchr.o)
 .data          0x000000000004dee8        0x0 /Users/davidebucci/Desktop/Synchronized/Vintage/Computing/Atari/ST/brown/lib/gcc/m68k-atariextrabrowner-elf/10.2.0/../../../../m68k-atariextrabrowner-elf/lib/m68000/libc.a(close.o)
 .data          0x000000000004dee8        0x0 /Users/davidebucci/Desktop/Synchronized/Vintage/Computing/Atari/ST/brown/lib/gcc/m68k-atariextrabrowner-elf/10.2.0/../../../../m68k-atariextrabrowner-elf/lib/m68000/libc.a(dup2.o)
 .data          0x000000000004dee8        0x0 /Users/davidebucci/Desktop/Synchronized/Vintage/Computing/Atari/ST/brown/lib/gcc/m68k-atariextrabrowner-elf/10.2.0/../../../../m68k-atariextrabrowner-elf/lib/m68000/libc.a(fstat.o)
 .data          0x000000000004dee8        0x0 /Users/davidebucci/Desktop/Synchronized/Vintage/Computing/Atari/ST/brown/lib/gcc/m68k-atariextrabrowner-elf/10.2.0/../../../../m68k-atariextrabrowner-elf/lib/m68000/libc.a(getpagesize.o)
 .data          0x000000000004dee8        0x0 /Users/davidebucci/Desktop/Synchronized/Vintage/Computing/Atari/ST/brown/lib/gcc/m68k-atariextrabrowner-elf/10.2.0/../../../../m68k-atariextrabrowner-elf/lib/m68000/libc.a(lseek.o)
 .data          0x000000000004dee8        0x4 /Users/davidebucci/Desktop/Synchronized/Vintage/Computing/Atari/ST/brown/lib/gcc/m68k-atariextrabrowner-elf/10.2.0/../../../../m68k-atariextrabrowner-elf/lib/m68000/libc.a(open.o)
                0x000000000004dee8                ___current_umask
 .data          0x000000000004deec       0x10 /Users/davidebucci/Desktop/Synchronized/Vintage/Computing/Atari/ST/brown/lib/gcc/m68k-atariextrabrowner-elf/10.2.0/../../../../m68k-atariextrabrowner-elf/lib/m68000/libc.a(read.o)
                0x000000000004def0                ___ltchars
                0x000000000004def6                ___tchars
 .data          0x000000000004defc        0x0 /Users/davidebucci/Desktop/Synchronized/Vintage/Computing/Atari/ST/brown/lib/gcc/m68k-atariextrabrowner-elf/10.2.0/../../../../m68k-atariextrabrowner-elf/lib/m68000/libc.a(sbrk.o)
 .data          0x000000000004defc        0x0 /Users/davidebucci/Desktop/Synchronized/Vintage/Computing/Atari/ST/brown/lib/gcc/m68k-atariextrabrowner-elf/10.2.0/../../../../m68k-atariextrabrowner-elf/lib/m68000/libc.a(sysctl.o)
 .data          0x000000000004defc        0x0 /Users/davidebucci/Desktop/Synchronized/Vintage/Computing/Atari/ST/brown/lib/gcc/m68k-atariextrabrowner-elf/10.2.0/../../../../m68k-atariextrabrowner-elf/lib/m68000/libc.a(write.o)
 .data          0x000000000004defc       0x1d /Users/davidebucci/Desktop/Synchronized/Vintage/Computing/Atari/ST/brown/lib/gcc/m68k-atariextrabrowner-elf/10.2.0/../../../../m68k-atariextrabrowner-elf/lib/m68000/libc.a(ident_sock.o)
                0x000000000004defc                ___Ident_socketlib
 *fill*         0x000000000004df19        0x3 
 .data          0x000000000004df1c        0x0 /Users/davidebucci/Desktop/Synchronized/Vintage/Computing/Atari/ST/brown/lib/gcc/m68k-atariextrabrowner-elf/10.2.0/../../../../m68k-atariextrabrowner-elf/lib/m68000/libc.a(assert.o)
 .data          0x000000000004df1c        0x0 /Users/davidebucci/Desktop/Synchronized/Vintage/Computing/Atari/ST/brown/lib/gcc/m68k-atariextrabrowner-elf/10.2.0/../../../../m68k-atariextrabrowner-elf/lib/m68000/libc.a(console.o)
 .data          0x000000000004df1c      0x404 /Users/davidebucci/Desktop/Synchronized/Vintage/Computing/Atari/ST/brown/lib/gcc/m68k-atariextrabrowner-elf/10.2.0/../../../../m68k-atariextrabrowner-elf/lib/m68000/libc.a(ctype.o)
                0x000000000004df1c                __ctype
 .data          0x000000000004e320        0x0 /Users/davidebucci/Desktop/Synchronized/Vintage/Computing/Atari/ST/brown/lib/gcc/m68k-atariextrabrowner-elf/10.2.0/../../../../m68k-atariextrabrowner-elf/lib/m68000/libc.a(do_fstat.o)
 .data          0x000000000004e320        0x0 /Users/davidebucci/Desktop/Synchronized/Vintage/Computing/Atari/ST/brown/lib/gcc/m68k-atariextrabrowner-elf/10.2.0/../../../../m68k-atariextrabrowner-elf/lib/m68000/libc.a(enoent.o)
 .data          0x000000000004e320        0x0 /Users/davidebucci/Desktop/Synchronized/Vintage/Computing/Atari/ST/brown/lib/gcc/m68k-atariextrabrowner-elf/10.2.0/../../../../m68k-atariextrabrowner-elf/lib/m68000/libc.a(getcookie.o)
 .data          0x000000000004e320        0x0 /Users/davidebucci/Desktop/Synchronized/Vintage/Computing/Atari/ST/brown/lib/gcc/m68k-atariextrabrowner-elf/10.2.0/../../../../m68k-atariextrabrowner-elf/lib/m68000/libc.a(getsysvar.o)
 .data          0x000000000004e320        0x4 /Users/davidebucci/Desktop/Synchronized/Vintage/Computing/Atari/ST/brown/lib/gcc/m68k-atariextrabrowner-elf/10.2.0/../../../../m68k-atariextrabrowner-elf/lib/m68000/libc.a(inode.o)
                0x000000000004e320                ___inode
 .data          0x000000000004e324        0x0 /Users/davidebucci/Desktop/Synchronized/Vintage/Computing/Atari/ST/brown/lib/gcc/m68k-atariextrabrowner-elf/10.2.0/../../../../m68k-atariextrabrowner-elf/lib/m68000/libc.a(isatty.o)
 .data          0x000000000004e324        0x0 /Users/davidebucci/Desktop/Synchronized/Vintage/Computing/Atari/ST/brown/lib/gcc/m68k-atariextrabrowner-elf/10.2.0/../../../../m68k-atariextrabrowner-elf/lib/m68000/libc.a(isctty.o)
 .data          0x000000000004e324        0x0 /Users/davidebucci/Desktop/Synchronized/Vintage/Computing/Atari/ST/brown/lib/gcc/m68k-atariextrabrowner-elf/10.2.0/../../../../m68k-atariextrabrowner-elf/lib/m68000/libc.a(libc_exit.o)
 .data          0x000000000004e324        0x0 /Users/davidebucci/Desktop/Synchronized/Vintage/Computing/Atari/ST/brown/lib/gcc/m68k-atariextrabrowner-elf/10.2.0/../../../../m68k-atariextrabrowner-elf/lib/m68000/libc.a(quickstat.o)
 .data          0x000000000004e324        0x0 /Users/davidebucci/Desktop/Synchronized/Vintage/Computing/Atari/ST/brown/lib/gcc/m68k-atariextrabrowner-elf/10.2.0/../../../../m68k-atariextrabrowner-elf/lib/m68000/libc.a(toxxx.o)
 .data          0x000000000004e324        0x0 /Users/davidebucci/Desktop/Synchronized/Vintage/Computing/Atari/ST/brown/lib/gcc/m68k-atariextrabrowner-elf/10.2.0/../../../../m68k-atariextrabrowner-elf/lib/m68000/libc.a(unixtime.o)
 .data          0x000000000004e324        0x0 /Users/davidebucci/Desktop/Synchronized/Vintage/Computing/Atari/ST/brown/lib/gcc/m68k-atariextrabrowner-elf/10.2.0/../../../../m68k-atariextrabrowner-elf/lib/m68000/libc.a(raise.o)
 .data          0x000000000004e324        0x0 /Users/davidebucci/Desktop/Synchronized/Vintage/Computing/Atari/ST/brown/lib/gcc/m68k-atariextrabrowner-elf/10.2.0/../../../../m68k-atariextrabrowner-elf/lib/m68000/libc.a(fcloseall.o)
 .data          0x000000000004e324        0x0 /Users/davidebucci/Desktop/Synchronized/Vintage/Computing/Atari/ST/brown/lib/gcc/m68k-atariextrabrowner-elf/10.2.0/../../../../m68k-atariextrabrowner-elf/lib/m68000/libc.a(fflush.o)
 .data          0x000000000004e324        0x0 /Users/davidebucci/Desktop/Synchronized/Vintage/Computing/Atari/ST/brown/lib/gcc/m68k-atariextrabrowner-elf/10.2.0/../../../../m68k-atariextrabrowner-elf/lib/m68000/libc.a(itoa-digits.o)
 .data          0x000000000004e324        0x0 /Users/davidebucci/Desktop/Synchronized/Vintage/Computing/Atari/ST/brown/lib/gcc/m68k-atariextrabrowner-elf/10.2.0/../../../../m68k-atariextrabrowner-elf/lib/m68000/libc.a(strtoul.o)
 .data          0x000000000004e324        0x0 /Users/davidebucci/Desktop/Synchronized/Vintage/Computing/Atari/ST/brown/lib/gcc/m68k-atariextrabrowner-elf/10.2.0/../../../../m68k-atariextrabrowner-elf/lib/m68000/libc.a(strchr.o)
 .data          0x000000000004e324        0xc /Users/davidebucci/Desktop/Synchronized/Vintage/Computing/Atari/ST/brown/lib/gcc/m68k-atariextrabrowner-elf/10.2.0/../../../../m68k-atariextrabrowner-elf/lib/m68000/libc.a(localtime.o)
                0x000000000004e324                _tzname
 .data          0x000000000004e330        0x0 /Users/davidebucci/Desktop/Synchronized/Vintage/Computing/Atari/ST/brown/lib/gcc/m68k-atariextrabrowner-elf/10.2.0/../../../../m68k-atariextrabrowner-elf/lib/m68000/libc.a(access.o)
 .data          0x000000000004e330        0x0 /Users/davidebucci/Desktop/Synchronized/Vintage/Computing/Atari/ST/brown/lib/gcc/m68k-atariextrabrowner-elf/10.2.0/../../../../m68k-atariextrabrowner-elf/lib/m68000/libc.a(chmod.o)
 .data          0x000000000004e330        0x2 /Users/davidebucci/Desktop/Synchronized/Vintage/Computing/Atari/ST/brown/lib/gcc/m68k-atariextrabrowner-elf/10.2.0/../../../../m68k-atariextrabrowner-elf/lib/m68000/libc.a(getegid.o)
 *fill*         0x000000000004e332        0x2 
 .data          0x000000000004e334        0x2 /Users/davidebucci/Desktop/Synchronized/Vintage/Computing/Atari/ST/brown/lib/gcc/m68k-atariextrabrowner-elf/10.2.0/../../../../m68k-atariextrabrowner-elf/lib/m68000/libc.a(geteuid.o)
 *fill*         0x000000000004e336        0x2 
 .data          0x000000000004e338        0x2 /Users/davidebucci/Desktop/Synchronized/Vintage/Computing/Atari/ST/brown/lib/gcc/m68k-atariextrabrowner-elf/10.2.0/../../../../m68k-atariextrabrowner-elf/lib/m68000/libc.a(getgid.o)
 *fill*         0x000000000004e33a        0x2 
 .data          0x000000000004e33c        0x0 /Users/davidebucci/Desktop/Synchronized/Vintage/Computing/Atari/ST/brown/lib/gcc/m68k-atariextrabrowner-elf/10.2.0/../../../../m68k-atariextrabrowner-elf/lib/m68000/libc.a(getgroups.o)
 .data          0x000000000004e33c        0x2 /Users/davidebucci/Desktop/Synchronized/Vintage/Computing/Atari/ST/brown/lib/gcc/m68k-atariextrabrowner-elf/10.2.0/../../../../m68k-atariextrabrowner-elf/lib/m68000/libc.a(getpid.o)
 *fill*         0x000000000004e33e        0x2 
 .data          0x000000000004e340        0x0 /Users/davidebucci/Desktop/Synchronized/Vintage/Computing/Atari/ST/brown/lib/gcc/m68k-atariextrabrowner-elf/10.2.0/../../../../m68k-atariextrabrowner-elf/lib/m68000/libc.a(getuid.o)
 .data          0x000000000004e340        0x8 /Users/davidebucci/Desktop/Synchronized/Vintage/Computing/Atari/ST/brown/lib/gcc/m68k-atariextrabrowner-elf/10.2.0/../../../../m68k-atariextrabrowner-elf/lib/m68000/libc.a(ioctl.o)
                0x000000000004e340                __ldisc
                0x000000000004e344                __ttydisc
 .data          0x000000000004e348        0x2 /Users/davidebucci/Desktop/Synchronized/Vintage/Computing/Atari/ST/brown/lib/gcc/m68k-atariextrabrowner-elf/10.2.0/../../../../m68k-atariextrabrowner-elf/lib/m68000/libc.a(kill.o)
 *fill*         0x000000000004e34a        0x2 
 .data          0x000000000004e34c        0x0 /Users/davidebucci/Desktop/Synchronized/Vintage/Computing/Atari/ST/brown/lib/gcc/m68k-atariextrabrowner-elf/10.2.0/../../../../m68k-atariextrabrowner-elf/lib/m68000/libc.a(time.o)
 .data          0x000000000004e34c        0x0 /Users/davidebucci/Desktop/Synchronized/Vintage/Computing/Atari/ST/brown/lib/gcc/m68k-atariextrabrowner-elf/10.2.0/../../../../m68k-atariextrabrowner-elf/lib/m68000/libc.a(abort.o)
 .data          0x000000000004e34c        0x0 /Users/davidebucci/Desktop/Synchronized/Vintage/Computing/Atari/ST/brown/lib/gcc/m68k-atariextrabrowner-elf/10.2.0/../../../../m68k-atariextrabrowner-elf/lib/m68000/libc.a(alglobal.o)
 .data          0x000000000004e34c        0x0 /Users/davidebucci/Desktop/Synchronized/Vintage/Computing/Atari/ST/brown/lib/gcc/m68k-atariextrabrowner-elf/10.2.0/../../../../m68k-atariextrabrowner-elf/lib/m68000/libc.a(calloc.o)
 .data          0x000000000004e34c        0x0 /Users/davidebucci/Desktop/Synchronized/Vintage/Computing/Atari/ST/brown/lib/gcc/m68k-atariextrabrowner-elf/10.2.0/../../../../m68k-atariextrabrowner-elf/lib/m68000/libc.a(do_stat.o)
 .data          0x000000000004e34c        0x0 /Users/davidebucci/Desktop/Synchronized/Vintage/Computing/Atari/ST/brown/lib/gcc/m68k-atariextrabrowner-elf/10.2.0/../../../../m68k-atariextrabrowner-elf/lib/m68000/libc.a(uidgid.o)
 .data          0x000000000004e34c        0x0 /Users/davidebucci/Desktop/Synchronized/Vintage/Computing/Atari/ST/brown/lib/gcc/m68k-atariextrabrowner-elf/10.2.0/../../../../m68k-atariextrabrowner-elf/lib/m68000/libc.a(getpwuid.o)
 .data          0x000000000004e34c        0x0 /Users/davidebucci/Desktop/Synchronized/Vintage/Computing/Atari/ST/brown/lib/gcc/m68k-atariextrabrowner-elf/10.2.0/../../../../m68k-atariextrabrowner-elf/lib/m68000/libc.a(getpwuid_r.o)
 .data          0x000000000004e34c        0x0 /Users/davidebucci/Desktop/Synchronized/Vintage/Computing/Atari/ST/brown/lib/gcc/m68k-atariextrabrowner-elf/10.2.0/../../../../m68k-atariextrabrowner-elf/lib/m68000/libc.a(grp.o)
 .data          0x000000000004e34c        0x0 /Users/davidebucci/Desktop/Synchronized/Vintage/Computing/Atari/ST/brown/lib/gcc/m68k-atariextrabrowner-elf/10.2.0/../../../../m68k-atariextrabrowner-elf/lib/m68000/libc.a(rewind.o)
 .data          0x000000000004e34c        0x0 /Users/davidebucci/Desktop/Synchronized/Vintage/Computing/Atari/ST/brown/lib/gcc/m68k-atariextrabrowner-elf/10.2.0/../../../../m68k-atariextrabrowner-elf/lib/m68000/libc.a(asctime.o)
 .data          0x000000000004e34c        0x0 /Users/davidebucci/Desktop/Synchronized/Vintage/Computing/Atari/ST/brown/lib/gcc/m68k-atariextrabrowner-elf/10.2.0/../../../../m68k-atariextrabrowner-elf/lib/m68000/libc.a(strftime.o)
 .data          0x000000000004e34c        0x4 /Users/davidebucci/Desktop/Synchronized/Vintage/Computing/Atari/ST/brown/lib/gcc/m68k-atariextrabrowner-elf/10.2.0/../../../../m68k-atariextrabrowner-elf/lib/m68000/libc.a(gettimeofday.o)
 .data          0x000000000004e350        0x0 /Users/davidebucci/Desktop/Synchronized/Vintage/Computing/Atari/ST/brown/lib/gcc/m68k-atariextrabrowner-elf/10.2.0/../../../../m68k-atariextrabrowner-elf/lib/m68000/libc.a(setlocale.o)
 .data          0x000000000004e350        0x0 /Users/davidebucci/Desktop/Synchronized/Vintage/Computing/Atari/ST/brown/lib/gcc/m68k-atariextrabrowner-elf/10.2.0/../../../../m68k-atariextrabrowner-elf/lib/m68000/libc.a(fgetpwent_r.o)
 .data          0x000000000004e350        0x0 /Users/davidebucci/Desktop/Synchronized/Vintage/Computing/Atari/ST/brown/lib/gcc/m68k-atariextrabrowner-elf/10.2.0/../../../../m68k-atariextrabrowner-elf/lib/m68000/libc.a(clearerr.o)
 .data          0x000000000004e350        0x0 /Users/davidebucci/Desktop/Synchronized/Vintage/Computing/Atari/ST/brown/lib/gcc/m68k-atariextrabrowner-elf/10.2.0/../../../../m68k-atariextrabrowner-elf/lib/m68000/libc.a(fprintf.o)
 .data          0x000000000004e350        0x0 /Users/davidebucci/Desktop/Synchronized/Vintage/Computing/Atari/ST/brown/lib/gcc/m68k-atariextrabrowner-elf/10.2.0/../../../../m68k-atariextrabrowner-elf/lib/m68000/libc.a(fputc.o)
 .data          0x000000000004e350        0x0 /Users/davidebucci/Desktop/Synchronized/Vintage/Computing/Atari/ST/brown/lib/gcc/m68k-atariextrabrowner-elf/10.2.0/../../../../m68k-atariextrabrowner-elf/lib/m68000/libc.a(fseek.o)
 .data          0x000000000004e350        0x0 /Users/davidebucci/Desktop/Synchronized/Vintage/Computing/Atari/ST/brown/lib/gcc/m68k-atariextrabrowner-elf/10.2.0/../../../../m68k-atariextrabrowner-elf/lib/m68000/libc.a(fwrite.o)
 .data          0x000000000004e350        0x0 /Users/davidebucci/Desktop/Synchronized/Vintage/Computing/Atari/ST/brown/lib/gcc/m68k-atariextrabrowner-elf/10.2.0/../../../../m68k-atariextrabrowner-elf/lib/m68000/libc.a(sprintf.o)
 .data          0x000000000004e350        0x0 /Users/davidebucci/Desktop/Synchronized/Vintage/Computing/Atari/ST/brown/lib/gcc/m68k-atariextrabrowner-elf/10.2.0/../../../../m68k-atariextrabrowner-elf/lib/m68000/libc.a(ungetc.o)
 .data          0x000000000004e350        0x0 /Users/davidebucci/Desktop/Synchronized/Vintage/Computing/Atari/ST/brown/lib/gcc/m68k-atariextrabrowner-elf/10.2.0/../../../../m68k-atariextrabrowner-elf/lib/m68000/libc.a(vfprintf.o)
 .data          0x000000000004e350        0x0 /Users/davidebucci/Desktop/Synchronized/Vintage/Computing/Atari/ST/brown/lib/gcc/m68k-atariextrabrowner-elf/10.2.0/../../../../m68k-atariextrabrowner-elf/lib/m68000/libc.a(vsprintf.o)
 .data          0x000000000004e350        0x0 /Users/davidebucci/Desktop/Synchronized/Vintage/Computing/Atari/ST/brown/lib/gcc/m68k-atariextrabrowner-elf/10.2.0/../../../../m68k-atariextrabrowner-elf/lib/m68000/libc.a(memchr.o)
 .data          0x000000000004e350        0x0 /Users/davidebucci/Desktop/Synchronized/Vintage/Computing/Atari/ST/brown/lib/gcc/m68k-atariextrabrowner-elf/10.2.0/../../../../m68k-atariextrabrowner-elf/lib/m68000/libc.a(mempcpy.o)
 .data          0x000000000004e350        0x0 /Users/davidebucci/Desktop/Synchronized/Vintage/Computing/Atari/ST/brown/lib/gcc/m68k-atariextrabrowner-elf/10.2.0/../../../../m68k-atariextrabrowner-elf/lib/m68000/libc.a(strcpy.o)
 .data          0x000000000004e350        0x0 /Users/davidebucci/Desktop/Synchronized/Vintage/Computing/Atari/ST/brown/lib/gcc/m68k-atariextrabrowner-elf/10.2.0/../../../../m68k-atariextrabrowner-elf/lib/m68000/libc.a(strerror_r.o)
 .data          0x000000000004e350        0x0 /Users/davidebucci/Desktop/Synchronized/Vintage/Computing/Atari/ST/brown/lib/gcc/m68k-atariextrabrowner-elf/10.2.0/../../../../m68k-atariextrabrowner-elf/lib/m68000/libc.a(strnlen.o)
 .data          0x000000000004e350        0x0 /Users/davidebucci/Desktop/Synchronized/Vintage/Computing/Atari/ST/brown/lib/gcc/m68k-atariextrabrowner-elf/10.2.0/../../../../m68k-atariextrabrowner-elf/lib/m68000/libc.a(_itoa.o)
 .data          0x000000000004e350        0x0 /Users/davidebucci/Desktop/Synchronized/Vintage/Computing/Atari/ST/brown/lib/gcc/m68k-atariextrabrowner-elf/10.2.0/../../../../m68k-atariextrabrowner-elf/lib/m68000/libc.a(lockfile.o)
 .data          0x000000000004e350        0x0 /Users/davidebucci/Desktop/Synchronized/Vintage/Computing/Atari/ST/brown/lib/gcc/m68k-atariextrabrowner-elf/10.2.0/../../../../m68k-atariextrabrowner-elf/lib/m68000/libc.a(printf_fp.o)
 .data          0x000000000004e350        0x0 /Users/davidebucci/Desktop/Synchronized/Vintage/Computing/Atari/ST/brown/lib/gcc/m68k-atariextrabrowner-elf/10.2.0/../../../../m68k-atariextrabrowner-elf/lib/m68000/libc.a(printf_fphex.o)
 .data          0x000000000004e350        0x0 /Users/davidebucci/Desktop/Synchronized/Vintage/Computing/Atari/ST/brown/lib/gcc/m68k-atariextrabrowner-elf/10.2.0/../../../../m68k-atariextrabrowner-elf/lib/m68000/libc.a(reg-printf.o)
 .data          0x000000000004e350        0x0 /Users/davidebucci/Desktop/Synchronized/Vintage/Computing/Atari/ST/brown/lib/gcc/m68k-atariextrabrowner-elf/10.2.0/../../../../m68k-atariextrabrowner-elf/lib/m68000/libc.a(fpioconst.o)
 .data          0x000000000004e350       0x16 /Users/davidebucci/Desktop/Synchronized/Vintage/Computing/Atari/ST/brown/lib/gcc/m68k-atariextrabrowner-elf/10.2.0/../../../../m68k-atariextrabrowner-elf/lib/m68000/libc.a(strerror.o)
                0x000000000004e362                __sys_nerr
                0x000000000004e362                _sys_nerr
 *fill*         0x000000000004e366        0x2 
 .data          0x000000000004e368        0x0 /Users/davidebucci/Desktop/Synchronized/Vintage/Computing/Atari/ST/brown/lib/gcc/m68k-atariextrabrowner-elf/10.2.0/../../../../m68k-atariextrabrowner-elf/lib/m68000/libc.a(dbl2mpn.o)
 .data          0x000000000004e368        0x0 /Users/davidebucci/Desktop/Synchronized/Vintage/Computing/Atari/ST/brown/lib/gcc/m68k-atariextrabrowner-elf/10.2.0/../../../../m68k-atariextrabrowner-elf/lib/m68000/libc.a(ldbl2mpn.o)
 .data          0x000000000004e368        0x0 /Users/davidebucci/Desktop/Synchronized/Vintage/Computing/Atari/ST/brown/lib/gcc/m68k-atariextrabrowner-elf/10.2.0/../../../../m68k-atariextrabrowner-elf/lib/m68000/libc.a(mp_clz_tab.o)
 .data          0x000000000004e368        0x0 /Users/davidebucci/Desktop/Synchronized/Vintage/Computing/Atari/ST/brown/lib/gcc/m68k-atariextrabrowner-elf/10.2.0/../../../../m68k-atariextrabrowner-elf/lib/m68000/libc.a(mpn-cmp.o)
 .data          0x000000000004e368        0x0 /Users/davidebucci/Desktop/Synchronized/Vintage/Computing/Atari/ST/brown/lib/gcc/m68k-atariextrabrowner-elf/10.2.0/../../../../m68k-atariextrabrowner-elf/lib/m68000/libc.a(mpn-divrem.o)
 .data          0x000000000004e368        0x0 /Users/davidebucci/Desktop/Synchronized/Vintage/Computing/Atari/ST/brown/lib/gcc/m68k-atariextrabrowner-elf/10.2.0/../../../../m68k-atariextrabrowner-elf/lib/m68000/libc.a(mpn-lshift.o)
 .data          0x000000000004e368        0x0 /Users/davidebucci/Desktop/Synchronized/Vintage/Computing/Atari/ST/brown/lib/gcc/m68k-atariextrabrowner-elf/10.2.0/../../../../m68k-atariextrabrowner-elf/lib/m68000/libc.a(mpn-mul.o)
 .data          0x000000000004e368        0x0 /Users/davidebucci/Desktop/Synchronized/Vintage/Computing/Atari/ST/brown/lib/gcc/m68k-atariextrabrowner-elf/10.2.0/../../../../m68k-atariextrabrowner-elf/lib/m68000/libc.a(mpn-mul_1.o)
 .data          0x000000000004e368        0x0 /Users/davidebucci/Desktop/Synchronized/Vintage/Computing/Atari/ST/brown/lib/gcc/m68k-atariextrabrowner-elf/10.2.0/../../../../m68k-atariextrabrowner-elf/lib/m68000/libc.a(mpn-mul_n.o)
 .data          0x000000000004e368        0x0 /Users/davidebucci/Desktop/Synchronized/Vintage/Computing/Atari/ST/brown/lib/gcc/m68k-atariextrabrowner-elf/10.2.0/../../../../m68k-atariextrabrowner-elf/lib/m68000/libc.a(mpn-rshift.o)
 .data          0x000000000004e368        0x0 /Users/davidebucci/Desktop/Synchronized/Vintage/Computing/Atari/ST/brown/lib/gcc/m68k-atariextrabrowner-elf/10.2.0/../../../../m68k-atariextrabrowner-elf/lib/m68000/libc.a(mpn-sub_n.o)
 .data          0x000000000004e368        0x0 /Users/davidebucci/Desktop/Synchronized/Vintage/Computing/Atari/ST/brown/lib/gcc/m68k-atariextrabrowner-elf/10.2.0/../../../../m68k-atariextrabrowner-elf/lib/m68000/libc.a(mpn-submul_1.o)
 .data          0x000000000004e368        0x0 /Users/davidebucci/Desktop/Synchronized/Vintage/Computing/Atari/ST/brown/lib/gcc/m68k-atariextrabrowner-elf/10.2.0/../../../../m68k-atariextrabrowner-elf/lib/m68000/libc.a(s_isinf.o)
 .data          0x000000000004e368        0x0 /Users/davidebucci/Desktop/Synchronized/Vintage/Computing/Atari/ST/brown/lib/gcc/m68k-atariextrabrowner-elf/10.2.0/../../../../m68k-atariextrabrowner-elf/lib/m68000/libc.a(s_isinfl.o)
 .data          0x000000000004e368        0x0 /Users/davidebucci/Desktop/Synchronized/Vintage/Computing/Atari/ST/brown/lib/gcc/m68k-atariextrabrowner-elf/10.2.0/../../../../m68k-atariextrabrowner-elf/lib/m68000/libc.a(s_isnan.o)
 .data          0x000000000004e368        0x0 /Users/davidebucci/Desktop/Synchronized/Vintage/Computing/Atari/ST/brown/lib/gcc/m68k-atariextrabrowner-elf/10.2.0/../../../../m68k-atariextrabrowner-elf/lib/m68000/libc.a(s_isnanl.o)
 .data          0x000000000004e368        0x0 /Users/davidebucci/Desktop/Synchronized/Vintage/Computing/Atari/ST/brown/lib/gcc/m68k-atariextrabrowner-elf/10.2.0/../../../../m68k-atariextrabrowner-elf/lib/m68000/libc.a(s_signbit.o)
 .data          0x000000000004e368        0x0 /Users/davidebucci/Desktop/Synchronized/Vintage/Computing/Atari/ST/brown/lib/gcc/m68k-atariextrabrowner-elf/10.2.0/../../../../m68k-atariextrabrowner-elf/lib/m68000/libc.a(s_signbitl.o)
 .data          0x000000000004e368        0x0 /Users/davidebucci/Desktop/Synchronized/Vintage/Computing/Atari/ST/brown/lib/gcc/m68k-atariextrabrowner-elf/10.2.0/../../../../m68k-atariextrabrowner-elf/lib/m68000/libc.a(snprintf.o)
 .data          0x000000000004e368        0x0 /Users/davidebucci/Desktop/Synchronized/Vintage/Computing/Atari/ST/brown/lib/gcc/m68k-atariextrabrowner-elf/10.2.0/../../../../m68k-atariextrabrowner-elf/lib/m68000/libc.a(vsnprintf.o)
 .data          0x000000000004e368        0x0 /Users/davidebucci/Desktop/Synchronized/Vintage/Computing/Atari/ST/brown/lib/gcc/m68k-atariextrabrowner-elf/10.2.0/../../../../m68k-atariextrabrowner-elf/lib/m68000/libc.a(mpn-add_n.o)
 .data          0x000000000004e368        0x0 /Users/davidebucci/Desktop/Synchronized/Vintage/Computing/Atari/ST/brown/lib/gcc/m68k-atariextrabrowner-elf/10.2.0/../../../../m68k-atariextrabrowner-elf/lib/m68000/libc.a(mpn-addmul_1.o)
 .data          0x000000000004e368        0x0 /Users/davidebucci/Desktop/Synchronized/Vintage/Computing/Atari/ST/brown/lib/gcc/m68k-atariextrabrowner-elf/10.2.0/../../../../m68k-atariextrabrowner-elf/lib/m68000/libc.a(fputs.o)
 .data          0x000000000004e368        0x0 /Users/davidebucci/Desktop/Synchronized/Vintage/Computing/Atari/ST/brown//lib/gcc/m68k-atariextrabrowner-elf/10.2.0/m68000/libgcc.a(_mulsi3.o)
 .data          0x000000000004e368        0x0 /Users/davidebucci/Desktop/Synchronized/Vintage/Computing/Atari/ST/brown//lib/gcc/m68k-atariextrabrowner-elf/10.2.0/m68000/libgcc.a(_udivsi3.o)
 .data          0x000000000004e368        0x0 /Users/davidebucci/Desktop/Synchronized/Vintage/Computing/Atari/ST/brown//lib/gcc/m68k-atariextrabrowner-elf/10.2.0/m68000/libgcc.a(_divsi3.o)
 .data          0x000000000004e368        0x0 /Users/davidebucci/Desktop/Synchronized/Vintage/Computing/Atari/ST/brown//lib/gcc/m68k-atariextrabrowner-elf/10.2.0/m68000/libgcc.a(_umodsi3.o)
 .data          0x000000000004e368        0x0 /Users/davidebucci/Desktop/Synchronized/Vintage/Computing/Atari/ST/brown//lib/gcc/m68k-atariextrabrowner-elf/10.2.0/m68000/libgcc.a(_modsi3.o)
 .data          0x000000000004e368        0x0 /Users/davidebucci/Desktop/Synchronized/Vintage/Computing/Atari/ST/brown//lib/gcc/m68k-atariextrabrowner-elf/10.2.0/m68000/libgcc.a(_double.o)
 .data          0x000000000004e368       0x1c /Users/davidebucci/Desktop/Synchronized/Vintage/Computing/Atari/ST/brown//lib/gcc/m68k-atariextrabrowner-elf/10.2.0/m68000/libgcc.a(_floatex.o)
                0x000000000004e368                __fpCCR
 .data          0x000000000004e384        0x0 /Users/davidebucci/Desktop/Synchronized/Vintage/Computing/Atari/ST/brown//lib/gcc/m68k-atariextrabrowner-elf/10.2.0/m68000/libgcc.a(_ltdf2.o)
 .data          0x000000000004e384        0x0 /Users/davidebucci/Desktop/Synchronized/Vintage/Computing/Atari/ST/brown//lib/gcc/m68k-atariextrabrowner-elf/10.2.0/m68000/libgcc.a(fpgnulib.o)
 .data          0x000000000004e384        0x0 /Users/davidebucci/Desktop/Synchronized/Vintage/Computing/Atari/ST/brown//lib/gcc/m68k-atariextrabrowner-elf/10.2.0/m68000/libgcc.a(xfgnulib.o)
 .data          0x000000000004e384        0x0 /Users/davidebucci/Desktop/Synchronized/Vintage/Computing/Atari/ST/brown/lib/gcc/m68k-atariextrabrowner-elf/10.2.0/m68000/crtend.o

.tm_clone_table
                0x000000000004e384        0x0
 .tm_clone_table
                0x000000000004e384        0x0 /Users/davidebucci/Desktop/Synchronized/Vintage/Computing/Atari/ST/brown/lib/gcc/m68k-atariextrabrowner-elf/10.2.0/m68000/crtbegin.o
 .tm_clone_table
                0x000000000004e384        0x0 /Users/davidebucci/Desktop/Synchronized/Vintage/Computing/Atari/ST/brown/lib/gcc/m68k-atariextrabrowner-elf/10.2.0/m68000/crtend.o
                0x000000000004e384                ___TMC_END__

.data1
 *(.data1)
                0x000000000004e384                _edata = .
                [!provide]                        PROVIDE (edata = .)
                0x000000000004e384                . = .
                0x000000000004e384                __bss_start = .

.bss            0x000000000004e384    0x27794
 *(.dynbss)
 *(.bss .bss.* .gnu.linkonce.b.*)
 .bss           0x000000000004e384       0x1e /Users/davidebucci/Desktop/Synchronized/Vintage/Computing/Atari/ST/brown/lib/gcc/m68k-atariextrabrowner-elf/10.2.0/m68000/crtbegin.o
 *fill*         0x000000000004e3a2        0x2 
 .bss           0x000000000004e3a4        0x0 /Users/davidebucci/Desktop/Synchronized/Vintage/Computing/Atari/ST/brown//../bigbrownbuild-git/mintlib-bigbrownbuild-10.2.0/startup/crt0.o
 .bss           0x000000000004e3a4    0x25d36 cover_pics/tdttr.o
 *fill*         0x00000000000740da        0x2 
 .bss           0x00000000000740dc        0x0 /var/folders/sk/pxzc9l1n12xfhw7mpgdgdkdc0000gn/T//tdttr40.elf.LVtvPN.ltrans0.ltrans.o
 .bss.colc      0x00000000000740dc        0x1 /var/folders/sk/pxzc9l1n12xfhw7mpgdgdkdc0000gn/T//tdttr40.elf.LVtvPN.ltrans0.ltrans.o
 .bss.wordbuffer
                0x00000000000740dd       0x28 /var/folders/sk/pxzc9l1n12xfhw7mpgdgdkdc0000gn/T//tdttr40.elf.LVtvPN.ltrans0.ltrans.o
 .bss.d         0x0000000000074105        0x1 /var/folders/sk/pxzc9l1n12xfhw7mpgdgdkdc0000gn/T//tdttr40.elf.LVtvPN.ltrans0.ltrans.o
 .bss.c         0x0000000000074106        0x1 /var/folders/sk/pxzc9l1n12xfhw7mpgdgdkdc0000gn/T//tdttr40.elf.LVtvPN.ltrans0.ltrans.o
 .bss.pc        0x0000000000074107        0x1 /var/folders/sk/pxzc9l1n12xfhw7mpgdgdkdc0000gn/T//tdttr40.elf.LVtvPN.ltrans0.ltrans.o
 .bss.rowc      0x0000000000074108        0x1 /var/folders/sk/pxzc9l1n12xfhw7mpgdgdkdc0000gn/T//tdttr40.elf.LVtvPN.ltrans0.ltrans.o
 .bss.s         0x0000000000074109       0xff /var/folders/sk/pxzc9l1n12xfhw7mpgdgdkdc0000gn/T//tdttr40.elf.LVtvPN.ltrans0.ltrans.o
 .bss.j         0x0000000000074208        0x1 /var/folders/sk/pxzc9l1n12xfhw7mpgdgdkdc0000gn/T//tdttr40.elf.LVtvPN.ltrans0.ltrans.o
 .bss.lc        0x0000000000074209        0x1 /var/folders/sk/pxzc9l1n12xfhw7mpgdgdkdc0000gn/T//tdttr40.elf.LVtvPN.ltrans0.ltrans.o
 .bss.i         0x000000000007420a        0x1 /var/folders/sk/pxzc9l1n12xfhw7mpgdgdkdc0000gn/T//tdttr40.elf.LVtvPN.ltrans0.ltrans.o
 *fill*         0x000000000007420b        0x1 
 .bss.f         0x000000000007420c        0x4 /var/folders/sk/pxzc9l1n12xfhw7mpgdgdkdc0000gn/T//tdttr40.elf.LVtvPN.ltrans0.ltrans.o
 .bss.playerInput
                0x0000000000074210       0xff /var/folders/sk/pxzc9l1n12xfhw7mpgdgdkdc0000gn/T//tdttr40.elf.LVtvPN.ltrans0.ltrans.o
 .bss.adve      0x000000000007430f        0x1 /var/folders/sk/pxzc9l1n12xfhw7mpgdgdkdc0000gn/T//tdttr40.elf.LVtvPN.ltrans0.ltrans.o
 .bss.adjective
                0x0000000000074310        0x4 /var/folders/sk/pxzc9l1n12xfhw7mpgdgdkdc0000gn/T//tdttr40.elf.LVtvPN.ltrans0.ltrans.o
 .bss.noun2     0x0000000000074314        0x4 /var/folders/sk/pxzc9l1n12xfhw7mpgdgdkdc0000gn/T//tdttr40.elf.LVtvPN.ltrans0.ltrans.o
 .bss.noun1     0x0000000000074318        0x4 /var/folders/sk/pxzc9l1n12xfhw7mpgdgdkdc0000gn/T//tdttr40.elf.LVtvPN.ltrans0.ltrans.o
 .bss.verb      0x000000000007431c        0x4 /var/folders/sk/pxzc9l1n12xfhw7mpgdgdkdc0000gn/T//tdttr40.elf.LVtvPN.ltrans0.ltrans.o
 .bss.ls        0x0000000000074320        0x1 /var/folders/sk/pxzc9l1n12xfhw7mpgdgdkdc0000gn/T//tdttr40.elf.LVtvPN.ltrans0.ltrans.o
 *fill*         0x0000000000074321        0x1 
 .bss.cr        0x0000000000074322        0x4 /var/folders/sk/pxzc9l1n12xfhw7mpgdgdkdc0000gn/T//tdttr40.elf.LVtvPN.ltrans0.ltrans.o
 .bss.dummy     0x0000000000074326        0x4 /var/folders/sk/pxzc9l1n12xfhw7mpgdgdkdc0000gn/T//tdttr40.elf.LVtvPN.ltrans0.ltrans.o
 .bss.retv      0x000000000007432a        0x1 /var/folders/sk/pxzc9l1n12xfhw7mpgdgdkdc0000gn/T//tdttr40.elf.LVtvPN.ltrans0.ltrans.o
 .bss.current_position
                0x000000000007432b        0x1 /var/folders/sk/pxzc9l1n12xfhw7mpgdgdkdc0000gn/T//tdttr40.elf.LVtvPN.ltrans0.ltrans.o
 .bss.iii       0x000000000007432c        0x1 /var/folders/sk/pxzc9l1n12xfhw7mpgdgdkdc0000gn/T//tdttr40.elf.LVtvPN.ltrans0.ltrans.o
 .bss.currbyte  0x000000000007432d        0x1 /var/folders/sk/pxzc9l1n12xfhw7mpgdgdkdc0000gn/T//tdttr40.elf.LVtvPN.ltrans0.ltrans.o
 .bss.decompress_b
                0x000000000007432e       0xf1 /var/folders/sk/pxzc9l1n12xfhw7mpgdgdkdc0000gn/T//tdttr40.elf.LVtvPN.ltrans0.ltrans.o
 *fill*         0x000000000007441f        0x1 
 .bss.compressed
                0x0000000000074420        0x4 /var/folders/sk/pxzc9l1n12xfhw7mpgdgdkdc0000gn/T//tdttr40.elf.LVtvPN.ltrans0.ltrans.o
 .bss.bpointer  0x0000000000074424        0x1 /var/folders/sk/pxzc9l1n12xfhw7mpgdgdkdc0000gn/T//tdttr40.elf.LVtvPN.ltrans0.ltrans.o
 *fill*         0x0000000000074425        0x1 
 .bss.cpointer  0x0000000000074426        0x4 /var/folders/sk/pxzc9l1n12xfhw7mpgdgdkdc0000gn/T//tdttr40.elf.LVtvPN.ltrans0.ltrans.o
 .bss.next_position
                0x000000000007442a        0x1 /var/folders/sk/pxzc9l1n12xfhw7mpgdgdkdc0000gn/T//tdttr40.elf.LVtvPN.ltrans0.ltrans.o
 *fill*         0x000000000007442b        0x1 
 .bss.counter   0x000000000007442c      0x204 /var/folders/sk/pxzc9l1n12xfhw7mpgdgdkdc0000gn/T//tdttr40.elf.LVtvPN.ltrans0.ltrans.o
 .bss.marker    0x0000000000074630       0x81 /var/folders/sk/pxzc9l1n12xfhw7mpgdgdkdc0000gn/T//tdttr40.elf.LVtvPN.ltrans0.ltrans.o
 .bss.cdummy    0x00000000000746b1        0x1 /var/folders/sk/pxzc9l1n12xfhw7mpgdgdkdc0000gn/T//tdttr40.elf.LVtvPN.ltrans0.ltrans.o
 *fill*         0x00000000000746b2        0x2 
 .bss           0x00000000000746b4        0x0 /Users/davidebucci/Desktop/Synchronized/Vintage/Computing/Atari/ST/brown/lib/gcc/m68k-atariextrabrowner-elf/10.2.0/../../../../m68k-atariextrabrowner-elf/lib/m68000/libc.a(checkcpu.o)
 .bss           0x00000000000746b4        0x0 /Users/davidebucci/Desktop/Synchronized/Vintage/Computing/Atari/ST/brown/lib/gcc/m68k-atariextrabrowner-elf/10.2.0/../../../../m68k-atariextrabrowner-elf/lib/m68000/libc.a(crtinit.o)
 .bss           0x00000000000746b4        0x0 /Users/davidebucci/Desktop/Synchronized/Vintage/Computing/Atari/ST/brown/lib/gcc/m68k-atariextrabrowner-elf/10.2.0/../../../../m68k-atariextrabrowner-elf/lib/m68000/libc.a(getenv.o)
 .bss           0x00000000000746b4       0x3c /Users/davidebucci/Desktop/Synchronized/Vintage/Computing/Atari/ST/brown/lib/gcc/m68k-atariextrabrowner-elf/10.2.0/../../../../m68k-atariextrabrowner-elf/lib/m68000/libc.a(globals.o)
                0x00000000000746b4                __exit_dummy_decl
                0x00000000000746b8                __split_mem
                0x00000000000746ba                ___DEFAULT_BUFSIZ__
                0x00000000000746be                __PgmSize
                0x00000000000746c2                _environ
                0x00000000000746c6                __base
                0x00000000000746ca                ___has_no_ssystem
                0x00000000000746ce                ___libc_unix_names
                0x00000000000746d2                __num_at_exit
                0x00000000000746d6                __at_exit
                0x00000000000746da                __childtime
                0x00000000000746de                __starttime
                0x00000000000746e2                __rootdir
                0x00000000000746e4                __pdomain
                0x00000000000746e8                ___mint
                0x00000000000746ec                _errno
 .bss           0x00000000000746f0        0x4 /Users/davidebucci/Desktop/Synchronized/Vintage/Computing/Atari/ST/brown/lib/gcc/m68k-atariextrabrowner-elf/10.2.0/../../../../m68k-atariextrabrowner-elf/lib/m68000/libc.a(heapbase.o)
                0x00000000000746f0                __heapbase
 .bss           0x00000000000746f4        0x0 /Users/davidebucci/Desktop/Synchronized/Vintage/Computing/Atari/ST/brown/lib/gcc/m68k-atariextrabrowner-elf/10.2.0/../../../../m68k-atariextrabrowner-elf/lib/m68000/libc.a(ident.o)
 .bss           0x00000000000746f4        0x1 /Users/davidebucci/Desktop/Synchronized/Vintage/Computing/Atari/ST/brown/lib/gcc/m68k-atariextrabrowner-elf/10.2.0/../../../../m68k-atariextrabrowner-elf/lib/m68000/libc.a(ident_dummy_gem.o)
                0x00000000000746f4                ___Ident_gem
 *fill*         0x00000000000746f5        0x3 
 .bss           0x00000000000746f8        0x4 /Users/davidebucci/Desktop/Synchronized/Vintage/Computing/Atari/ST/brown/lib/gcc/m68k-atariextrabrowner-elf/10.2.0/../../../../m68k-atariextrabrowner-elf/lib/m68000/libc.a(inistack.o)
                0x00000000000746f8                __initial_stack
 .bss           0x00000000000746fc        0x0 /Users/davidebucci/Desktop/Synchronized/Vintage/Computing/Atari/ST/brown/lib/gcc/m68k-atariextrabrowner-elf/10.2.0/../../../../m68k-atariextrabrowner-elf/lib/m68000/libc.a(main.o)
 .bss           0x00000000000746fc        0x8 /Users/davidebucci/Desktop/Synchronized/Vintage/Computing/Atari/ST/brown/lib/gcc/m68k-atariextrabrowner-elf/10.2.0/../../../../m68k-atariextrabrowner-elf/lib/m68000/libc.a(malloc.o)
 .bss           0x0000000000074704        0x0 /Users/davidebucci/Desktop/Synchronized/Vintage/Computing/Atari/ST/brown/lib/gcc/m68k-atariextrabrowner-elf/10.2.0/../../../../m68k-atariextrabrowner-elf/lib/m68000/libc.a(realloc.o)
 .bss           0x0000000000074704        0x0 /Users/davidebucci/Desktop/Synchronized/Vintage/Computing/Atari/ST/brown/lib/gcc/m68k-atariextrabrowner-elf/10.2.0/../../../../m68k-atariextrabrowner-elf/lib/m68000/libc.a(setstack.o)
 .bss           0x0000000000074704        0x0 /Users/davidebucci/Desktop/Synchronized/Vintage/Computing/Atari/ST/brown/lib/gcc/m68k-atariextrabrowner-elf/10.2.0/../../../../m68k-atariextrabrowner-elf/lib/m68000/libc.a(stksiz.o)
 .bss           0x0000000000074704        0x0 /Users/davidebucci/Desktop/Synchronized/Vintage/Computing/Atari/ST/brown/lib/gcc/m68k-atariextrabrowner-elf/10.2.0/../../../../m68k-atariextrabrowner-elf/lib/m68000/libc.a(unx2dos.o)
 .bss           0x0000000000074704       0x88 /Users/davidebucci/Desktop/Synchronized/Vintage/Computing/Atari/ST/brown/lib/gcc/m68k-atariextrabrowner-elf/10.2.0/../../../../m68k-atariextrabrowner-elf/lib/m68000/libc.a(initsig.o)
                0x0000000000074704                __sigpending
                0x0000000000074708                __sigmask
                0x000000000007470c                __sig_handler
 .bss           0x000000000007478c        0x0 /Users/davidebucci/Desktop/Synchronized/Vintage/Computing/Atari/ST/brown/lib/gcc/m68k-atariextrabrowner-elf/10.2.0/../../../../m68k-atariextrabrowner-elf/lib/m68000/libc.a(binmode.o)
 .bss           0x000000000007478c        0x2 /Users/davidebucci/Desktop/Synchronized/Vintage/Computing/Atari/ST/brown/lib/gcc/m68k-atariextrabrowner-elf/10.2.0/../../../../m68k-atariextrabrowner-elf/lib/m68000/libc.a(defmode.o)
                0x000000000007478c                ___default_mode__
 *fill*         0x000000000007478e        0x2 
 .bss           0x0000000000074790        0x0 /Users/davidebucci/Desktop/Synchronized/Vintage/Computing/Atari/ST/brown/lib/gcc/m68k-atariextrabrowner-elf/10.2.0/../../../../m68k-atariextrabrowner-elf/lib/m68000/libc.a(fclose.o)
 .bss           0x0000000000074790        0x0 /Users/davidebucci/Desktop/Synchronized/Vintage/Computing/Atari/ST/brown/lib/gcc/m68k-atariextrabrowner-elf/10.2.0/../../../../m68k-atariextrabrowner-elf/lib/m68000/libc.a(fgets.o)
 .bss           0x0000000000074790        0x0 /Users/davidebucci/Desktop/Synchronized/Vintage/Computing/Atari/ST/brown/lib/gcc/m68k-atariextrabrowner-elf/10.2.0/../../../../m68k-atariextrabrowner-elf/lib/m68000/libc.a(fileno.o)
 .bss           0x0000000000074790        0x0 /Users/davidebucci/Desktop/Synchronized/Vintage/Computing/Atari/ST/brown/lib/gcc/m68k-atariextrabrowner-elf/10.2.0/../../../../m68k-atariextrabrowner-elf/lib/m68000/libc.a(fopen.o)
 .bss           0x0000000000074790        0x0 /Users/davidebucci/Desktop/Synchronized/Vintage/Computing/Atari/ST/brown/lib/gcc/m68k-atariextrabrowner-elf/10.2.0/../../../../m68k-atariextrabrowner-elf/lib/m68000/libc.a(getchar.o)
 .bss           0x0000000000074790        0x0 /Users/davidebucci/Desktop/Synchronized/Vintage/Computing/Atari/ST/brown/lib/gcc/m68k-atariextrabrowner-elf/10.2.0/../../../../m68k-atariextrabrowner-elf/lib/m68000/libc.a(internals.o)
 .bss           0x0000000000074790        0x0 /Users/davidebucci/Desktop/Synchronized/Vintage/Computing/Atari/ST/brown/lib/gcc/m68k-atariextrabrowner-elf/10.2.0/../../../../m68k-atariextrabrowner-elf/lib/m68000/libc.a(newstream.o)
 .bss           0x0000000000074790        0x0 /Users/davidebucci/Desktop/Synchronized/Vintage/Computing/Atari/ST/brown/lib/gcc/m68k-atariextrabrowner-elf/10.2.0/../../../../m68k-atariextrabrowner-elf/lib/m68000/libc.a(setvbuf.o)
 .bss           0x0000000000074790        0x0 /Users/davidebucci/Desktop/Synchronized/Vintage/Computing/Atari/ST/brown/lib/gcc/m68k-atariextrabrowner-elf/10.2.0/../../../../m68k-atariextrabrowner-elf/lib/m68000/libc.a(stdio_init.o)
 .bss           0x0000000000074790        0x0 /Users/davidebucci/Desktop/Synchronized/Vintage/Computing/Atari/ST/brown/lib/gcc/m68k-atariextrabrowner-elf/10.2.0/../../../../m68k-atariextrabrowner-elf/lib/m68000/libc.a(sysd-stdio.o)
 .bss           0x0000000000074790        0x0 /Users/davidebucci/Desktop/Synchronized/Vintage/Computing/Atari/ST/brown/lib/gcc/m68k-atariextrabrowner-elf/10.2.0/../../../../m68k-atariextrabrowner-elf/lib/m68000/libc.a(atoi.o)
 .bss           0x0000000000074790        0x0 /Users/davidebucci/Desktop/Synchronized/Vintage/Computing/Atari/ST/brown/lib/gcc/m68k-atariextrabrowner-elf/10.2.0/../../../../m68k-atariextrabrowner-elf/lib/m68000/libc.a(exit.o)
 .bss           0x0000000000074790        0x0 /Users/davidebucci/Desktop/Synchronized/Vintage/Computing/Atari/ST/brown/lib/gcc/m68k-atariextrabrowner-elf/10.2.0/../../../../m68k-atariextrabrowner-elf/lib/m68000/libc.a(rand.o)
 .bss           0x0000000000074790        0x0 /Users/davidebucci/Desktop/Synchronized/Vintage/Computing/Atari/ST/brown/lib/gcc/m68k-atariextrabrowner-elf/10.2.0/../../../../m68k-atariextrabrowner-elf/lib/m68000/libc.a(strtol.o)
 .bss           0x0000000000074790        0x0 /Users/davidebucci/Desktop/Synchronized/Vintage/Computing/Atari/ST/brown/lib/gcc/m68k-atariextrabrowner-elf/10.2.0/../../../../m68k-atariextrabrowner-elf/lib/m68000/libc.a(bcopy.o)
 .bss           0x0000000000074790        0x0 /Users/davidebucci/Desktop/Synchronized/Vintage/Computing/Atari/ST/brown/lib/gcc/m68k-atariextrabrowner-elf/10.2.0/../../../../m68k-atariextrabrowner-elf/lib/m68000/libc.a(bzero.o)
 .bss           0x0000000000074790        0x0 /Users/davidebucci/Desktop/Synchronized/Vintage/Computing/Atari/ST/brown/lib/gcc/m68k-atariextrabrowner-elf/10.2.0/../../../../m68k-atariextrabrowner-elf/lib/m68000/libc.a(memccpy.o)
 .bss           0x0000000000074790        0x0 /Users/davidebucci/Desktop/Synchronized/Vintage/Computing/Atari/ST/brown/lib/gcc/m68k-atariextrabrowner-elf/10.2.0/../../../../m68k-atariextrabrowner-elf/lib/m68000/libc.a(memset.o)
 .bss           0x0000000000074790        0x0 /Users/davidebucci/Desktop/Synchronized/Vintage/Computing/Atari/ST/brown/lib/gcc/m68k-atariextrabrowner-elf/10.2.0/../../../../m68k-atariextrabrowner-elf/lib/m68000/libc.a(strcmp.o)
 .bss           0x0000000000074790        0x0 /Users/davidebucci/Desktop/Synchronized/Vintage/Computing/Atari/ST/brown/lib/gcc/m68k-atariextrabrowner-elf/10.2.0/../../../../m68k-atariextrabrowner-elf/lib/m68000/libc.a(strlen.o)
 .bss           0x0000000000074790        0x0 /Users/davidebucci/Desktop/Synchronized/Vintage/Computing/Atari/ST/brown/lib/gcc/m68k-atariextrabrowner-elf/10.2.0/../../../../m68k-atariextrabrowner-elf/lib/m68000/libc.a(strncat.o)
 .bss           0x0000000000074790        0x0 /Users/davidebucci/Desktop/Synchronized/Vintage/Computing/Atari/ST/brown/lib/gcc/m68k-atariextrabrowner-elf/10.2.0/../../../../m68k-atariextrabrowner-elf/lib/m68000/libc.a(strncmp.o)
 .bss           0x0000000000074790        0x0 /Users/davidebucci/Desktop/Synchronized/Vintage/Computing/Atari/ST/brown/lib/gcc/m68k-atariextrabrowner-elf/10.2.0/../../../../m68k-atariextrabrowner-elf/lib/m68000/libc.a(strncpy.o)
 .bss           0x0000000000074790        0x0 /Users/davidebucci/Desktop/Synchronized/Vintage/Computing/Atari/ST/brown/lib/gcc/m68k-atariextrabrowner-elf/10.2.0/../../../../m68k-atariextrabrowner-elf/lib/m68000/libc.a(strrchr.o)
 .bss           0x0000000000074790        0x0 /Users/davidebucci/Desktop/Synchronized/Vintage/Computing/Atari/ST/brown/lib/gcc/m68k-atariextrabrowner-elf/10.2.0/../../../../m68k-atariextrabrowner-elf/lib/m68000/libc.a(close.o)
 .bss           0x0000000000074790        0x0 /Users/davidebucci/Desktop/Synchronized/Vintage/Computing/Atari/ST/brown/lib/gcc/m68k-atariextrabrowner-elf/10.2.0/../../../../m68k-atariextrabrowner-elf/lib/m68000/libc.a(dup2.o)
 .bss           0x0000000000074790        0x0 /Users/davidebucci/Desktop/Synchronized/Vintage/Computing/Atari/ST/brown/lib/gcc/m68k-atariextrabrowner-elf/10.2.0/../../../../m68k-atariextrabrowner-elf/lib/m68000/libc.a(fstat.o)
 .bss           0x0000000000074790        0x0 /Users/davidebucci/Desktop/Synchronized/Vintage/Computing/Atari/ST/brown/lib/gcc/m68k-atariextrabrowner-elf/10.2.0/../../../../m68k-atariextrabrowner-elf/lib/m68000/libc.a(getpagesize.o)
 .bss           0x0000000000074790        0x0 /Users/davidebucci/Desktop/Synchronized/Vintage/Computing/Atari/ST/brown/lib/gcc/m68k-atariextrabrowner-elf/10.2.0/../../../../m68k-atariextrabrowner-elf/lib/m68000/libc.a(lseek.o)
 .bss           0x0000000000074790        0x0 /Users/davidebucci/Desktop/Synchronized/Vintage/Computing/Atari/ST/brown/lib/gcc/m68k-atariextrabrowner-elf/10.2.0/../../../../m68k-atariextrabrowner-elf/lib/m68000/libc.a(open.o)
 .bss           0x0000000000074790        0x0 /Users/davidebucci/Desktop/Synchronized/Vintage/Computing/Atari/ST/brown/lib/gcc/m68k-atariextrabrowner-elf/10.2.0/../../../../m68k-atariextrabrowner-elf/lib/m68000/libc.a(read.o)
 .bss           0x0000000000074790        0x0 /Users/davidebucci/Desktop/Synchronized/Vintage/Computing/Atari/ST/brown/lib/gcc/m68k-atariextrabrowner-elf/10.2.0/../../../../m68k-atariextrabrowner-elf/lib/m68000/libc.a(sbrk.o)
 .bss           0x0000000000074790        0x0 /Users/davidebucci/Desktop/Synchronized/Vintage/Computing/Atari/ST/brown/lib/gcc/m68k-atariextrabrowner-elf/10.2.0/../../../../m68k-atariextrabrowner-elf/lib/m68000/libc.a(sysctl.o)
 .bss           0x0000000000074790        0x0 /Users/davidebucci/Desktop/Synchronized/Vintage/Computing/Atari/ST/brown/lib/gcc/m68k-atariextrabrowner-elf/10.2.0/../../../../m68k-atariextrabrowner-elf/lib/m68000/libc.a(write.o)
 .bss           0x0000000000074790        0x0 /Users/davidebucci/Desktop/Synchronized/Vintage/Computing/Atari/ST/brown/lib/gcc/m68k-atariextrabrowner-elf/10.2.0/../../../../m68k-atariextrabrowner-elf/lib/m68000/libc.a(ident_sock.o)
 .bss           0x0000000000074790        0x0 /Users/davidebucci/Desktop/Synchronized/Vintage/Computing/Atari/ST/brown/lib/gcc/m68k-atariextrabrowner-elf/10.2.0/../../../../m68k-atariextrabrowner-elf/lib/m68000/libc.a(assert.o)
 .bss           0x0000000000074790        0x0 /Users/davidebucci/Desktop/Synchronized/Vintage/Computing/Atari/ST/brown/lib/gcc/m68k-atariextrabrowner-elf/10.2.0/../../../../m68k-atariextrabrowner-elf/lib/m68000/libc.a(console.o)
 .bss           0x0000000000074790        0x0 /Users/davidebucci/Desktop/Synchronized/Vintage/Computing/Atari/ST/brown/lib/gcc/m68k-atariextrabrowner-elf/10.2.0/../../../../m68k-atariextrabrowner-elf/lib/m68000/libc.a(ctype.o)
 .bss           0x0000000000074790        0x0 /Users/davidebucci/Desktop/Synchronized/Vintage/Computing/Atari/ST/brown/lib/gcc/m68k-atariextrabrowner-elf/10.2.0/../../../../m68k-atariextrabrowner-elf/lib/m68000/libc.a(do_fstat.o)
 .bss           0x0000000000074790        0x0 /Users/davidebucci/Desktop/Synchronized/Vintage/Computing/Atari/ST/brown/lib/gcc/m68k-atariextrabrowner-elf/10.2.0/../../../../m68k-atariextrabrowner-elf/lib/m68000/libc.a(enoent.o)
 .bss           0x0000000000074790        0x0 /Users/davidebucci/Desktop/Synchronized/Vintage/Computing/Atari/ST/brown/lib/gcc/m68k-atariextrabrowner-elf/10.2.0/../../../../m68k-atariextrabrowner-elf/lib/m68000/libc.a(getcookie.o)
 .bss           0x0000000000074790        0x0 /Users/davidebucci/Desktop/Synchronized/Vintage/Computing/Atari/ST/brown/lib/gcc/m68k-atariextrabrowner-elf/10.2.0/../../../../m68k-atariextrabrowner-elf/lib/m68000/libc.a(getsysvar.o)
 .bss           0x0000000000074790        0x0 /Users/davidebucci/Desktop/Synchronized/Vintage/Computing/Atari/ST/brown/lib/gcc/m68k-atariextrabrowner-elf/10.2.0/../../../../m68k-atariextrabrowner-elf/lib/m68000/libc.a(inode.o)
 .bss           0x0000000000074790       0xf0 /Users/davidebucci/Desktop/Synchronized/Vintage/Computing/Atari/ST/brown/lib/gcc/m68k-atariextrabrowner-elf/10.2.0/../../../../m68k-atariextrabrowner-elf/lib/m68000/libc.a(isatty.o)
                0x0000000000074790                ___open_stat
 .bss           0x0000000000074880        0x0 /Users/davidebucci/Desktop/Synchronized/Vintage/Computing/Atari/ST/brown/lib/gcc/m68k-atariextrabrowner-elf/10.2.0/../../../../m68k-atariextrabrowner-elf/lib/m68000/libc.a(isctty.o)
 .bss           0x0000000000074880        0x0 /Users/davidebucci/Desktop/Synchronized/Vintage/Computing/Atari/ST/brown/lib/gcc/m68k-atariextrabrowner-elf/10.2.0/../../../../m68k-atariextrabrowner-elf/lib/m68000/libc.a(libc_exit.o)
 .bss           0x0000000000074880        0x0 /Users/davidebucci/Desktop/Synchronized/Vintage/Computing/Atari/ST/brown/lib/gcc/m68k-atariextrabrowner-elf/10.2.0/../../../../m68k-atariextrabrowner-elf/lib/m68000/libc.a(quickstat.o)
 .bss           0x0000000000074880        0x0 /Users/davidebucci/Desktop/Synchronized/Vintage/Computing/Atari/ST/brown/lib/gcc/m68k-atariextrabrowner-elf/10.2.0/../../../../m68k-atariextrabrowner-elf/lib/m68000/libc.a(toxxx.o)
 .bss           0x0000000000074880        0x0 /Users/davidebucci/Desktop/Synchronized/Vintage/Computing/Atari/ST/brown/lib/gcc/m68k-atariextrabrowner-elf/10.2.0/../../../../m68k-atariextrabrowner-elf/lib/m68000/libc.a(unixtime.o)
 .bss           0x0000000000074880        0x0 /Users/davidebucci/Desktop/Synchronized/Vintage/Computing/Atari/ST/brown/lib/gcc/m68k-atariextrabrowner-elf/10.2.0/../../../../m68k-atariextrabrowner-elf/lib/m68000/libc.a(raise.o)
 .bss           0x0000000000074880        0x0 /Users/davidebucci/Desktop/Synchronized/Vintage/Computing/Atari/ST/brown/lib/gcc/m68k-atariextrabrowner-elf/10.2.0/../../../../m68k-atariextrabrowner-elf/lib/m68000/libc.a(fcloseall.o)
 .bss           0x0000000000074880        0x0 /Users/davidebucci/Desktop/Synchronized/Vintage/Computing/Atari/ST/brown/lib/gcc/m68k-atariextrabrowner-elf/10.2.0/../../../../m68k-atariextrabrowner-elf/lib/m68000/libc.a(fflush.o)
 .bss           0x0000000000074880        0x0 /Users/davidebucci/Desktop/Synchronized/Vintage/Computing/Atari/ST/brown/lib/gcc/m68k-atariextrabrowner-elf/10.2.0/../../../../m68k-atariextrabrowner-elf/lib/m68000/libc.a(itoa-digits.o)
 .bss           0x0000000000074880        0x0 /Users/davidebucci/Desktop/Synchronized/Vintage/Computing/Atari/ST/brown/lib/gcc/m68k-atariextrabrowner-elf/10.2.0/../../../../m68k-atariextrabrowner-elf/lib/m68000/libc.a(strtoul.o)
 .bss           0x0000000000074880        0x0 /Users/davidebucci/Desktop/Synchronized/Vintage/Computing/Atari/ST/brown/lib/gcc/m68k-atariextrabrowner-elf/10.2.0/../../../../m68k-atariextrabrowner-elf/lib/m68000/libc.a(strchr.o)
 .bss           0x0000000000074880      0x144 /Users/davidebucci/Desktop/Synchronized/Vintage/Computing/Atari/ST/brown/lib/gcc/m68k-atariextrabrowner-elf/10.2.0/../../../../m68k-atariextrabrowner-elf/lib/m68000/libc.a(localtime.o)
                0x0000000000074880                _daylight
                0x0000000000074884                _timezone
 .bss           0x00000000000749c4        0x0 /Users/davidebucci/Desktop/Synchronized/Vintage/Computing/Atari/ST/brown/lib/gcc/m68k-atariextrabrowner-elf/10.2.0/../../../../m68k-atariextrabrowner-elf/lib/m68000/libc.a(access.o)
 .bss           0x00000000000749c4        0x0 /Users/davidebucci/Desktop/Synchronized/Vintage/Computing/Atari/ST/brown/lib/gcc/m68k-atariextrabrowner-elf/10.2.0/../../../../m68k-atariextrabrowner-elf/lib/m68000/libc.a(chmod.o)
 .bss           0x00000000000749c4        0x0 /Users/davidebucci/Desktop/Synchronized/Vintage/Computing/Atari/ST/brown/lib/gcc/m68k-atariextrabrowner-elf/10.2.0/../../../../m68k-atariextrabrowner-elf/lib/m68000/libc.a(getegid.o)
 .bss           0x00000000000749c4        0x0 /Users/davidebucci/Desktop/Synchronized/Vintage/Computing/Atari/ST/brown/lib/gcc/m68k-atariextrabrowner-elf/10.2.0/../../../../m68k-atariextrabrowner-elf/lib/m68000/libc.a(geteuid.o)
 .bss           0x00000000000749c4        0x0 /Users/davidebucci/Desktop/Synchronized/Vintage/Computing/Atari/ST/brown/lib/gcc/m68k-atariextrabrowner-elf/10.2.0/../../../../m68k-atariextrabrowner-elf/lib/m68000/libc.a(getgid.o)
 .bss           0x00000000000749c4        0x0 /Users/davidebucci/Desktop/Synchronized/Vintage/Computing/Atari/ST/brown/lib/gcc/m68k-atariextrabrowner-elf/10.2.0/../../../../m68k-atariextrabrowner-elf/lib/m68000/libc.a(getgroups.o)
 .bss           0x00000000000749c4        0x0 /Users/davidebucci/Desktop/Synchronized/Vintage/Computing/Atari/ST/brown/lib/gcc/m68k-atariextrabrowner-elf/10.2.0/../../../../m68k-atariextrabrowner-elf/lib/m68000/libc.a(getpid.o)
 .bss           0x00000000000749c4        0x0 /Users/davidebucci/Desktop/Synchronized/Vintage/Computing/Atari/ST/brown/lib/gcc/m68k-atariextrabrowner-elf/10.2.0/../../../../m68k-atariextrabrowner-elf/lib/m68000/libc.a(getuid.o)
 .bss           0x00000000000749c4        0x0 /Users/davidebucci/Desktop/Synchronized/Vintage/Computing/Atari/ST/brown/lib/gcc/m68k-atariextrabrowner-elf/10.2.0/../../../../m68k-atariextrabrowner-elf/lib/m68000/libc.a(ioctl.o)
 .bss           0x00000000000749c4        0x0 /Users/davidebucci/Desktop/Synchronized/Vintage/Computing/Atari/ST/brown/lib/gcc/m68k-atariextrabrowner-elf/10.2.0/../../../../m68k-atariextrabrowner-elf/lib/m68000/libc.a(kill.o)
 .bss           0x00000000000749c4        0x0 /Users/davidebucci/Desktop/Synchronized/Vintage/Computing/Atari/ST/brown/lib/gcc/m68k-atariextrabrowner-elf/10.2.0/../../../../m68k-atariextrabrowner-elf/lib/m68000/libc.a(time.o)
 .bss           0x00000000000749c4        0x0 /Users/davidebucci/Desktop/Synchronized/Vintage/Computing/Atari/ST/brown/lib/gcc/m68k-atariextrabrowner-elf/10.2.0/../../../../m68k-atariextrabrowner-elf/lib/m68000/libc.a(abort.o)
 .bss           0x00000000000749c4        0xc /Users/davidebucci/Desktop/Synchronized/Vintage/Computing/Atari/ST/brown/lib/gcc/m68k-atariextrabrowner-elf/10.2.0/../../../../m68k-atariextrabrowner-elf/lib/m68000/libc.a(alglobal.o)
                0x00000000000749c4                ___funcs
                0x00000000000749c8                ___fonts
                0x00000000000749cc                ___aline
 .bss           0x00000000000749d0        0x0 /Users/davidebucci/Desktop/Synchronized/Vintage/Computing/Atari/ST/brown/lib/gcc/m68k-atariextrabrowner-elf/10.2.0/../../../../m68k-atariextrabrowner-elf/lib/m68000/libc.a(calloc.o)
 .bss           0x00000000000749d0        0x4 /Users/davidebucci/Desktop/Synchronized/Vintage/Computing/Atari/ST/brown/lib/gcc/m68k-atariextrabrowner-elf/10.2.0/../../../../m68k-atariextrabrowner-elf/lib/m68000/libc.a(do_stat.o)
                0x00000000000749d0                __x_Bit_set_in_stat
 .bss           0x00000000000749d4        0x8 /Users/davidebucci/Desktop/Synchronized/Vintage/Computing/Atari/ST/brown/lib/gcc/m68k-atariextrabrowner-elf/10.2.0/../../../../m68k-atariextrabrowner-elf/lib/m68000/libc.a(uidgid.o)
                0x00000000000749d4                ___gid
                0x00000000000749d8                ___uid
 .bss           0x00000000000749dc      0x424 /Users/davidebucci/Desktop/Synchronized/Vintage/Computing/Atari/ST/brown/lib/gcc/m68k-atariextrabrowner-elf/10.2.0/../../../../m68k-atariextrabrowner-elf/lib/m68000/libc.a(getpwuid.o)
 .bss           0x0000000000074e00        0x0 /Users/davidebucci/Desktop/Synchronized/Vintage/Computing/Atari/ST/brown/lib/gcc/m68k-atariextrabrowner-elf/10.2.0/../../../../m68k-atariextrabrowner-elf/lib/m68000/libc.a(getpwuid_r.o)
 .bss           0x0000000000074e00      0x414 /Users/davidebucci/Desktop/Synchronized/Vintage/Computing/Atari/ST/brown/lib/gcc/m68k-atariextrabrowner-elf/10.2.0/../../../../m68k-atariextrabrowner-elf/lib/m68000/libc.a(grp.o)
 .bss           0x0000000000075214        0x0 /Users/davidebucci/Desktop/Synchronized/Vintage/Computing/Atari/ST/brown/lib/gcc/m68k-atariextrabrowner-elf/10.2.0/../../../../m68k-atariextrabrowner-elf/lib/m68000/libc.a(rewind.o)
 .bss           0x0000000000075214       0x48 /Users/davidebucci/Desktop/Synchronized/Vintage/Computing/Atari/ST/brown/lib/gcc/m68k-atariextrabrowner-elf/10.2.0/../../../../m68k-atariextrabrowner-elf/lib/m68000/libc.a(asctime.o)
 .bss           0x000000000007525c       0xb4 /Users/davidebucci/Desktop/Synchronized/Vintage/Computing/Atari/ST/brown/lib/gcc/m68k-atariextrabrowner-elf/10.2.0/../../../../m68k-atariextrabrowner-elf/lib/m68000/libc.a(strftime.o)
 .bss           0x0000000000075310        0x0 /Users/davidebucci/Desktop/Synchronized/Vintage/Computing/Atari/ST/brown/lib/gcc/m68k-atariextrabrowner-elf/10.2.0/../../../../m68k-atariextrabrowner-elf/lib/m68000/libc.a(gettimeofday.o)
 .bss           0x0000000000075310        0x0 /Users/davidebucci/Desktop/Synchronized/Vintage/Computing/Atari/ST/brown/lib/gcc/m68k-atariextrabrowner-elf/10.2.0/../../../../m68k-atariextrabrowner-elf/lib/m68000/libc.a(setlocale.o)
 .bss           0x0000000000075310        0x0 /Users/davidebucci/Desktop/Synchronized/Vintage/Computing/Atari/ST/brown/lib/gcc/m68k-atariextrabrowner-elf/10.2.0/../../../../m68k-atariextrabrowner-elf/lib/m68000/libc.a(fgetpwent_r.o)
 .bss           0x0000000000075310        0x0 /Users/davidebucci/Desktop/Synchronized/Vintage/Computing/Atari/ST/brown/lib/gcc/m68k-atariextrabrowner-elf/10.2.0/../../../../m68k-atariextrabrowner-elf/lib/m68000/libc.a(clearerr.o)
 .bss           0x0000000000075310        0x0 /Users/davidebucci/Desktop/Synchronized/Vintage/Computing/Atari/ST/brown/lib/gcc/m68k-atariextrabrowner-elf/10.2.0/../../../../m68k-atariextrabrowner-elf/lib/m68000/libc.a(fprintf.o)
 .bss           0x0000000000075310        0x0 /Users/davidebucci/Desktop/Synchronized/Vintage/Computing/Atari/ST/brown/lib/gcc/m68k-atariextrabrowner-elf/10.2.0/../../../../m68k-atariextrabrowner-elf/lib/m68000/libc.a(fputc.o)
 .bss           0x0000000000075310        0x0 /Users/davidebucci/Desktop/Synchronized/Vintage/Computing/Atari/ST/brown/lib/gcc/m68k-atariextrabrowner-elf/10.2.0/../../../../m68k-atariextrabrowner-elf/lib/m68000/libc.a(fseek.o)
 .bss           0x0000000000075310        0x0 /Users/davidebucci/Desktop/Synchronized/Vintage/Computing/Atari/ST/brown/lib/gcc/m68k-atariextrabrowner-elf/10.2.0/../../../../m68k-atariextrabrowner-elf/lib/m68000/libc.a(fwrite.o)
 .bss           0x0000000000075310        0x0 /Users/davidebucci/Desktop/Synchronized/Vintage/Computing/Atari/ST/brown/lib/gcc/m68k-atariextrabrowner-elf/10.2.0/../../../../m68k-atariextrabrowner-elf/lib/m68000/libc.a(sprintf.o)
 .bss           0x0000000000075310        0x0 /Users/davidebucci/Desktop/Synchronized/Vintage/Computing/Atari/ST/brown/lib/gcc/m68k-atariextrabrowner-elf/10.2.0/../../../../m68k-atariextrabrowner-elf/lib/m68000/libc.a(ungetc.o)
 .bss           0x0000000000075310        0x0 /Users/davidebucci/Desktop/Synchronized/Vintage/Computing/Atari/ST/brown/lib/gcc/m68k-atariextrabrowner-elf/10.2.0/../../../../m68k-atariextrabrowner-elf/lib/m68000/libc.a(vfprintf.o)
 .bss           0x0000000000075310        0x0 /Users/davidebucci/Desktop/Synchronized/Vintage/Computing/Atari/ST/brown/lib/gcc/m68k-atariextrabrowner-elf/10.2.0/../../../../m68k-atariextrabrowner-elf/lib/m68000/libc.a(vsprintf.o)
 .bss           0x0000000000075310        0x0 /Users/davidebucci/Desktop/Synchronized/Vintage/Computing/Atari/ST/brown/lib/gcc/m68k-atariextrabrowner-elf/10.2.0/../../../../m68k-atariextrabrowner-elf/lib/m68000/libc.a(memchr.o)
 .bss           0x0000000000075310        0x0 /Users/davidebucci/Desktop/Synchronized/Vintage/Computing/Atari/ST/brown/lib/gcc/m68k-atariextrabrowner-elf/10.2.0/../../../../m68k-atariextrabrowner-elf/lib/m68000/libc.a(mempcpy.o)
 .bss           0x0000000000075310        0x0 /Users/davidebucci/Desktop/Synchronized/Vintage/Computing/Atari/ST/brown/lib/gcc/m68k-atariextrabrowner-elf/10.2.0/../../../../m68k-atariextrabrowner-elf/lib/m68000/libc.a(strcpy.o)
 .bss           0x0000000000075310        0x0 /Users/davidebucci/Desktop/Synchronized/Vintage/Computing/Atari/ST/brown/lib/gcc/m68k-atariextrabrowner-elf/10.2.0/../../../../m68k-atariextrabrowner-elf/lib/m68000/libc.a(strerror_r.o)
 .bss           0x0000000000075310        0x0 /Users/davidebucci/Desktop/Synchronized/Vintage/Computing/Atari/ST/brown/lib/gcc/m68k-atariextrabrowner-elf/10.2.0/../../../../m68k-atariextrabrowner-elf/lib/m68000/libc.a(strnlen.o)
 .bss           0x0000000000075310        0x0 /Users/davidebucci/Desktop/Synchronized/Vintage/Computing/Atari/ST/brown/lib/gcc/m68k-atariextrabrowner-elf/10.2.0/../../../../m68k-atariextrabrowner-elf/lib/m68000/libc.a(_itoa.o)
 .bss           0x0000000000075310        0x0 /Users/davidebucci/Desktop/Synchronized/Vintage/Computing/Atari/ST/brown/lib/gcc/m68k-atariextrabrowner-elf/10.2.0/../../../../m68k-atariextrabrowner-elf/lib/m68000/libc.a(lockfile.o)
 .bss           0x0000000000075310        0x0 /Users/davidebucci/Desktop/Synchronized/Vintage/Computing/Atari/ST/brown/lib/gcc/m68k-atariextrabrowner-elf/10.2.0/../../../../m68k-atariextrabrowner-elf/lib/m68000/libc.a(printf_fp.o)
 .bss           0x0000000000075310        0x0 /Users/davidebucci/Desktop/Synchronized/Vintage/Computing/Atari/ST/brown/lib/gcc/m68k-atariextrabrowner-elf/10.2.0/../../../../m68k-atariextrabrowner-elf/lib/m68000/libc.a(printf_fphex.o)
 .bss           0x0000000000075310      0x804 /Users/davidebucci/Desktop/Synchronized/Vintage/Computing/Atari/ST/brown/lib/gcc/m68k-atariextrabrowner-elf/10.2.0/../../../../m68k-atariextrabrowner-elf/lib/m68000/libc.a(reg-printf.o)
                0x0000000000075310                ___printf_function_table
                0x0000000000075314                ___printf_arginfo_table
 .bss           0x0000000000075b14        0x0 /Users/davidebucci/Desktop/Synchronized/Vintage/Computing/Atari/ST/brown/lib/gcc/m68k-atariextrabrowner-elf/10.2.0/../../../../m68k-atariextrabrowner-elf/lib/m68000/libc.a(fpioconst.o)
 .bss           0x0000000000075b14        0x4 /Users/davidebucci/Desktop/Synchronized/Vintage/Computing/Atari/ST/brown/lib/gcc/m68k-atariextrabrowner-elf/10.2.0/../../../../m68k-atariextrabrowner-elf/lib/m68000/libc.a(strerror.o)
 .bss           0x0000000000075b18        0x0 /Users/davidebucci/Desktop/Synchronized/Vintage/Computing/Atari/ST/brown/lib/gcc/m68k-atariextrabrowner-elf/10.2.0/../../../../m68k-atariextrabrowner-elf/lib/m68000/libc.a(dbl2mpn.o)
 .bss           0x0000000000075b18        0x0 /Users/davidebucci/Desktop/Synchronized/Vintage/Computing/Atari/ST/brown/lib/gcc/m68k-atariextrabrowner-elf/10.2.0/../../../../m68k-atariextrabrowner-elf/lib/m68000/libc.a(ldbl2mpn.o)
 .bss           0x0000000000075b18        0x0 /Users/davidebucci/Desktop/Synchronized/Vintage/Computing/Atari/ST/brown/lib/gcc/m68k-atariextrabrowner-elf/10.2.0/../../../../m68k-atariextrabrowner-elf/lib/m68000/libc.a(mp_clz_tab.o)
 .bss           0x0000000000075b18        0x0 /Users/davidebucci/Desktop/Synchronized/Vintage/Computing/Atari/ST/brown/lib/gcc/m68k-atariextrabrowner-elf/10.2.0/../../../../m68k-atariextrabrowner-elf/lib/m68000/libc.a(mpn-cmp.o)
 .bss           0x0000000000075b18        0x0 /Users/davidebucci/Desktop/Synchronized/Vintage/Computing/Atari/ST/brown/lib/gcc/m68k-atariextrabrowner-elf/10.2.0/../../../../m68k-atariextrabrowner-elf/lib/m68000/libc.a(mpn-divrem.o)
 .bss           0x0000000000075b18        0x0 /Users/davidebucci/Desktop/Synchronized/Vintage/Computing/Atari/ST/brown/lib/gcc/m68k-atariextrabrowner-elf/10.2.0/../../../../m68k-atariextrabrowner-elf/lib/m68000/libc.a(mpn-lshift.o)
 .bss           0x0000000000075b18        0x0 /Users/davidebucci/Desktop/Synchronized/Vintage/Computing/Atari/ST/brown/lib/gcc/m68k-atariextrabrowner-elf/10.2.0/../../../../m68k-atariextrabrowner-elf/lib/m68000/libc.a(mpn-mul.o)
 .bss           0x0000000000075b18        0x0 /Users/davidebucci/Desktop/Synchronized/Vintage/Computing/Atari/ST/brown/lib/gcc/m68k-atariextrabrowner-elf/10.2.0/../../../../m68k-atariextrabrowner-elf/lib/m68000/libc.a(mpn-mul_1.o)
 .bss           0x0000000000075b18        0x0 /Users/davidebucci/Desktop/Synchronized/Vintage/Computing/Atari/ST/brown/lib/gcc/m68k-atariextrabrowner-elf/10.2.0/../../../../m68k-atariextrabrowner-elf/lib/m68000/libc.a(mpn-mul_n.o)
 .bss           0x0000000000075b18        0x0 /Users/davidebucci/Desktop/Synchronized/Vintage/Computing/Atari/ST/brown/lib/gcc/m68k-atariextrabrowner-elf/10.2.0/../../../../m68k-atariextrabrowner-elf/lib/m68000/libc.a(mpn-rshift.o)
 .bss           0x0000000000075b18        0x0 /Users/davidebucci/Desktop/Synchronized/Vintage/Computing/Atari/ST/brown/lib/gcc/m68k-atariextrabrowner-elf/10.2.0/../../../../m68k-atariextrabrowner-elf/lib/m68000/libc.a(mpn-sub_n.o)
 .bss           0x0000000000075b18        0x0 /Users/davidebucci/Desktop/Synchronized/Vintage/Computing/Atari/ST/brown/lib/gcc/m68k-atariextrabrowner-elf/10.2.0/../../../../m68k-atariextrabrowner-elf/lib/m68000/libc.a(mpn-submul_1.o)
 .bss           0x0000000000075b18        0x0 /Users/davidebucci/Desktop/Synchronized/Vintage/Computing/Atari/ST/brown/lib/gcc/m68k-atariextrabrowner-elf/10.2.0/../../../../m68k-atariextrabrowner-elf/lib/m68000/libc.a(s_isinf.o)
 .bss           0x0000000000075b18        0x0 /Users/davidebucci/Desktop/Synchronized/Vintage/Computing/Atari/ST/brown/lib/gcc/m68k-atariextrabrowner-elf/10.2.0/../../../../m68k-atariextrabrowner-elf/lib/m68000/libc.a(s_isinfl.o)
 .bss           0x0000000000075b18        0x0 /Users/davidebucci/Desktop/Synchronized/Vintage/Computing/Atari/ST/brown/lib/gcc/m68k-atariextrabrowner-elf/10.2.0/../../../../m68k-atariextrabrowner-elf/lib/m68000/libc.a(s_isnan.o)
 .bss           0x0000000000075b18        0x0 /Users/davidebucci/Desktop/Synchronized/Vintage/Computing/Atari/ST/brown/lib/gcc/m68k-atariextrabrowner-elf/10.2.0/../../../../m68k-atariextrabrowner-elf/lib/m68000/libc.a(s_isnanl.o)
 .bss           0x0000000000075b18        0x0 /Users/davidebucci/Desktop/Synchronized/Vintage/Computing/Atari/ST/brown/lib/gcc/m68k-atariextrabrowner-elf/10.2.0/../../../../m68k-atariextrabrowner-elf/lib/m68000/libc.a(s_signbit.o)
 .bss           0x0000000000075b18        0x0 /Users/davidebucci/Desktop/Synchronized/Vintage/Computing/Atari/ST/brown/lib/gcc/m68k-atariextrabrowner-elf/10.2.0/../../../../m68k-atariextrabrowner-elf/lib/m68000/libc.a(s_signbitl.o)
 .bss           0x0000000000075b18        0x0 /Users/davidebucci/Desktop/Synchronized/Vintage/Computing/Atari/ST/brown/lib/gcc/m68k-atariextrabrowner-elf/10.2.0/../../../../m68k-atariextrabrowner-elf/lib/m68000/libc.a(snprintf.o)
 .bss           0x0000000000075b18        0x0 /Users/davidebucci/Desktop/Synchronized/Vintage/Computing/Atari/ST/brown/lib/gcc/m68k-atariextrabrowner-elf/10.2.0/../../../../m68k-atariextrabrowner-elf/lib/m68000/libc.a(vsnprintf.o)
 .bss           0x0000000000075b18        0x0 /Users/davidebucci/Desktop/Synchronized/Vintage/Computing/Atari/ST/brown/lib/gcc/m68k-atariextrabrowner-elf/10.2.0/../../../../m68k-atariextrabrowner-elf/lib/m68000/libc.a(mpn-add_n.o)
 .bss           0x0000000000075b18        0x0 /Users/davidebucci/Desktop/Synchronized/Vintage/Computing/Atari/ST/brown/lib/gcc/m68k-atariextrabrowner-elf/10.2.0/../../../../m68k-atariextrabrowner-elf/lib/m68000/libc.a(mpn-addmul_1.o)
 .bss           0x0000000000075b18        0x0 /Users/davidebucci/Desktop/Synchronized/Vintage/Computing/Atari/ST/brown/lib/gcc/m68k-atariextrabrowner-elf/10.2.0/../../../../m68k-atariextrabrowner-elf/lib/m68000/libc.a(fputs.o)
 .bss           0x0000000000075b18        0x0 /Users/davidebucci/Desktop/Synchronized/Vintage/Computing/Atari/ST/brown//lib/gcc/m68k-atariextrabrowner-elf/10.2.0/m68000/libgcc.a(_mulsi3.o)
 .bss           0x0000000000075b18        0x0 /Users/davidebucci/Desktop/Synchronized/Vintage/Computing/Atari/ST/brown//lib/gcc/m68k-atariextrabrowner-elf/10.2.0/m68000/libgcc.a(_udivsi3.o)
 .bss           0x0000000000075b18        0x0 /Users/davidebucci/Desktop/Synchronized/Vintage/Computing/Atari/ST/brown//lib/gcc/m68k-atariextrabrowner-elf/10.2.0/m68000/libgcc.a(_divsi3.o)
 .bss           0x0000000000075b18        0x0 /Users/davidebucci/Desktop/Synchronized/Vintage/Computing/Atari/ST/brown//lib/gcc/m68k-atariextrabrowner-elf/10.2.0/m68000/libgcc.a(_umodsi3.o)
 .bss           0x0000000000075b18        0x0 /Users/davidebucci/Desktop/Synchronized/Vintage/Computing/Atari/ST/brown//lib/gcc/m68k-atariextrabrowner-elf/10.2.0/m68000/libgcc.a(_modsi3.o)
 .bss           0x0000000000075b18        0x0 /Users/davidebucci/Desktop/Synchronized/Vintage/Computing/Atari/ST/brown//lib/gcc/m68k-atariextrabrowner-elf/10.2.0/m68000/libgcc.a(_double.o)
 .bss           0x0000000000075b18        0x0 /Users/davidebucci/Desktop/Synchronized/Vintage/Computing/Atari/ST/brown//lib/gcc/m68k-atariextrabrowner-elf/10.2.0/m68000/libgcc.a(_floatex.o)
 .bss           0x0000000000075b18        0x0 /Users/davidebucci/Desktop/Synchronized/Vintage/Computing/Atari/ST/brown//lib/gcc/m68k-atariextrabrowner-elf/10.2.0/m68000/libgcc.a(_ltdf2.o)
 .bss           0x0000000000075b18        0x0 /Users/davidebucci/Desktop/Synchronized/Vintage/Computing/Atari/ST/brown//lib/gcc/m68k-atariextrabrowner-elf/10.2.0/m68000/libgcc.a(fpgnulib.o)
 .bss           0x0000000000075b18        0x0 /Users/davidebucci/Desktop/Synchronized/Vintage/Computing/Atari/ST/brown//lib/gcc/m68k-atariextrabrowner-elf/10.2.0/m68000/libgcc.a(xfgnulib.o)
 .bss           0x0000000000075b18        0x0 /Users/davidebucci/Desktop/Synchronized/Vintage/Computing/Atari/ST/brown/lib/gcc/m68k-atariextrabrowner-elf/10.2.0/m68000/crtend.o
 *(COMMON)
                0x0000000000075b18                . = ALIGN ((. != 0x0)?0x4:0x1)
                0x0000000000075b18                . = ALIGN (0x4)
                0x0000000000075b18                . = SEGMENT_START ("ldata-segment", .)
                0x0000000000075b18                . = ALIGN (0x4)
                0x0000000000075b18                _end = .
                [!provide]                        PROVIDE (end = .)
                0x0000000000075b18                . = DATA_SEGMENT_END (.)

.stab
 *(.stab)

.stabstr
 *(.stabstr)

.stab.excl
 *(.stab.excl)

.stab.exclstr
 *(.stab.exclstr)

.stab.index
 *(.stab.index)

.stab.indexstr
 *(.stab.indexstr)

.comment        0x0000000000000000       0x12
 *(.comment)
 .comment       0x0000000000000000       0x12 /Users/davidebucci/Desktop/Synchronized/Vintage/Computing/Atari/ST/brown/lib/gcc/m68k-atariextrabrowner-elf/10.2.0/m68000/crtbegin.o
                                         0x13 (size before relaxing)
 .comment       0x0000000000000012       0x13 /var/folders/sk/pxzc9l1n12xfhw7mpgdgdkdc0000gn/T//tdttr40.elf.LVtvPN.ltrans0.ltrans.o
 .comment       0x0000000000000012       0x13 /Users/davidebucci/Desktop/Synchronized/Vintage/Computing/Atari/ST/brown/lib/gcc/m68k-atariextrabrowner-elf/10.2.0/../../../../m68k-atariextrabrowner-elf/lib/m68000/libc.a(crtinit.o)
 .comment       0x0000000000000012       0x13 /Users/davidebucci/Desktop/Synchronized/Vintage/Computing/Atari/ST/brown/lib/gcc/m68k-atariextrabrowner-elf/10.2.0/../../../../m68k-atariextrabrowner-elf/lib/m68000/libc.a(getenv.o)
 .comment       0x0000000000000012       0x13 /Users/davidebucci/Desktop/Synchronized/Vintage/Computing/Atari/ST/brown/lib/gcc/m68k-atariextrabrowner-elf/10.2.0/../../../../m68k-atariextrabrowner-elf/lib/m68000/libc.a(globals.o)
 .comment       0x0000000000000012       0x13 /Users/davidebucci/Desktop/Synchronized/Vintage/Computing/Atari/ST/brown/lib/gcc/m68k-atariextrabrowner-elf/10.2.0/../../../../m68k-atariextrabrowner-elf/lib/m68000/libc.a(heapbase.o)
 .comment       0x0000000000000012       0x13 /Users/davidebucci/Desktop/Synchronized/Vintage/Computing/Atari/ST/brown/lib/gcc/m68k-atariextrabrowner-elf/10.2.0/../../../../m68k-atariextrabrowner-elf/lib/m68000/libc.a(ident.o)
 .comment       0x0000000000000012       0x13 /Users/davidebucci/Desktop/Synchronized/Vintage/Computing/Atari/ST/brown/lib/gcc/m68k-atariextrabrowner-elf/10.2.0/../../../../m68k-atariextrabrowner-elf/lib/m68000/libc.a(ident_dummy_gem.o)
 .comment       0x0000000000000012       0x13 /Users/davidebucci/Desktop/Synchronized/Vintage/Computing/Atari/ST/brown/lib/gcc/m68k-atariextrabrowner-elf/10.2.0/../../../../m68k-atariextrabrowner-elf/lib/m68000/libc.a(inistack.o)
 .comment       0x0000000000000012       0x13 /Users/davidebucci/Desktop/Synchronized/Vintage/Computing/Atari/ST/brown/lib/gcc/m68k-atariextrabrowner-elf/10.2.0/../../../../m68k-atariextrabrowner-elf/lib/m68000/libc.a(main.o)
 .comment       0x0000000000000012       0x13 /Users/davidebucci/Desktop/Synchronized/Vintage/Computing/Atari/ST/brown/lib/gcc/m68k-atariextrabrowner-elf/10.2.0/../../../../m68k-atariextrabrowner-elf/lib/m68000/libc.a(malloc.o)
 .comment       0x0000000000000012       0x13 /Users/davidebucci/Desktop/Synchronized/Vintage/Computing/Atari/ST/brown/lib/gcc/m68k-atariextrabrowner-elf/10.2.0/../../../../m68k-atariextrabrowner-elf/lib/m68000/libc.a(realloc.o)
 .comment       0x0000000000000012       0x13 /Users/davidebucci/Desktop/Synchronized/Vintage/Computing/Atari/ST/brown/lib/gcc/m68k-atariextrabrowner-elf/10.2.0/../../../../m68k-atariextrabrowner-elf/lib/m68000/libc.a(stksiz.o)
 .comment       0x0000000000000012       0x13 /Users/davidebucci/Desktop/Synchronized/Vintage/Computing/Atari/ST/brown/lib/gcc/m68k-atariextrabrowner-elf/10.2.0/../../../../m68k-atariextrabrowner-elf/lib/m68000/libc.a(unx2dos.o)
 .comment       0x0000000000000012       0x13 /Users/davidebucci/Desktop/Synchronized/Vintage/Computing/Atari/ST/brown/lib/gcc/m68k-atariextrabrowner-elf/10.2.0/../../../../m68k-atariextrabrowner-elf/lib/m68000/libc.a(initsig.o)
 .comment       0x0000000000000012       0x13 /Users/davidebucci/Desktop/Synchronized/Vintage/Computing/Atari/ST/brown/lib/gcc/m68k-atariextrabrowner-elf/10.2.0/../../../../m68k-atariextrabrowner-elf/lib/m68000/libc.a(binmode.o)
 .comment       0x0000000000000012       0x13 /Users/davidebucci/Desktop/Synchronized/Vintage/Computing/Atari/ST/brown/lib/gcc/m68k-atariextrabrowner-elf/10.2.0/../../../../m68k-atariextrabrowner-elf/lib/m68000/libc.a(defmode.o)
 .comment       0x0000000000000012       0x13 /Users/davidebucci/Desktop/Synchronized/Vintage/Computing/Atari/ST/brown/lib/gcc/m68k-atariextrabrowner-elf/10.2.0/../../../../m68k-atariextrabrowner-elf/lib/m68000/libc.a(fclose.o)
 .comment       0x0000000000000012       0x13 /Users/davidebucci/Desktop/Synchronized/Vintage/Computing/Atari/ST/brown/lib/gcc/m68k-atariextrabrowner-elf/10.2.0/../../../../m68k-atariextrabrowner-elf/lib/m68000/libc.a(fgets.o)
 .comment       0x0000000000000012       0x13 /Users/davidebucci/Desktop/Synchronized/Vintage/Computing/Atari/ST/brown/lib/gcc/m68k-atariextrabrowner-elf/10.2.0/../../../../m68k-atariextrabrowner-elf/lib/m68000/libc.a(fileno.o)
 .comment       0x0000000000000012       0x13 /Users/davidebucci/Desktop/Synchronized/Vintage/Computing/Atari/ST/brown/lib/gcc/m68k-atariextrabrowner-elf/10.2.0/../../../../m68k-atariextrabrowner-elf/lib/m68000/libc.a(fopen.o)
 .comment       0x0000000000000012       0x13 /Users/davidebucci/Desktop/Synchronized/Vintage/Computing/Atari/ST/brown/lib/gcc/m68k-atariextrabrowner-elf/10.2.0/../../../../m68k-atariextrabrowner-elf/lib/m68000/libc.a(getchar.o)
 .comment       0x0000000000000012       0x13 /Users/davidebucci/Desktop/Synchronized/Vintage/Computing/Atari/ST/brown/lib/gcc/m68k-atariextrabrowner-elf/10.2.0/../../../../m68k-atariextrabrowner-elf/lib/m68000/libc.a(internals.o)
 .comment       0x0000000000000012       0x13 /Users/davidebucci/Desktop/Synchronized/Vintage/Computing/Atari/ST/brown/lib/gcc/m68k-atariextrabrowner-elf/10.2.0/../../../../m68k-atariextrabrowner-elf/lib/m68000/libc.a(newstream.o)
 .comment       0x0000000000000012       0x13 /Users/davidebucci/Desktop/Synchronized/Vintage/Computing/Atari/ST/brown/lib/gcc/m68k-atariextrabrowner-elf/10.2.0/../../../../m68k-atariextrabrowner-elf/lib/m68000/libc.a(setvbuf.o)
 .comment       0x0000000000000012       0x13 /Users/davidebucci/Desktop/Synchronized/Vintage/Computing/Atari/ST/brown/lib/gcc/m68k-atariextrabrowner-elf/10.2.0/../../../../m68k-atariextrabrowner-elf/lib/m68000/libc.a(stdio_init.o)
 .comment       0x0000000000000012       0x13 /Users/davidebucci/Desktop/Synchronized/Vintage/Computing/Atari/ST/brown/lib/gcc/m68k-atariextrabrowner-elf/10.2.0/../../../../m68k-atariextrabrowner-elf/lib/m68000/libc.a(sysd-stdio.o)
 .comment       0x0000000000000012       0x13 /Users/davidebucci/Desktop/Synchronized/Vintage/Computing/Atari/ST/brown/lib/gcc/m68k-atariextrabrowner-elf/10.2.0/../../../../m68k-atariextrabrowner-elf/lib/m68000/libc.a(atoi.o)
 .comment       0x0000000000000012       0x13 /Users/davidebucci/Desktop/Synchronized/Vintage/Computing/Atari/ST/brown/lib/gcc/m68k-atariextrabrowner-elf/10.2.0/../../../../m68k-atariextrabrowner-elf/lib/m68000/libc.a(exit.o)
 .comment       0x0000000000000012       0x13 /Users/davidebucci/Desktop/Synchronized/Vintage/Computing/Atari/ST/brown/lib/gcc/m68k-atariextrabrowner-elf/10.2.0/../../../../m68k-atariextrabrowner-elf/lib/m68000/libc.a(rand.o)
 .comment       0x0000000000000012       0x13 /Users/davidebucci/Desktop/Synchronized/Vintage/Computing/Atari/ST/brown/lib/gcc/m68k-atariextrabrowner-elf/10.2.0/../../../../m68k-atariextrabrowner-elf/lib/m68000/libc.a(strtol.o)
 .comment       0x0000000000000012       0x13 /Users/davidebucci/Desktop/Synchronized/Vintage/Computing/Atari/ST/brown/lib/gcc/m68k-atariextrabrowner-elf/10.2.0/../../../../m68k-atariextrabrowner-elf/lib/m68000/libc.a(memccpy.o)
 .comment       0x0000000000000012       0x13 /Users/davidebucci/Desktop/Synchronized/Vintage/Computing/Atari/ST/brown/lib/gcc/m68k-atariextrabrowner-elf/10.2.0/../../../../m68k-atariextrabrowner-elf/lib/m68000/libc.a(strcmp.o)
 .comment       0x0000000000000012       0x13 /Users/davidebucci/Desktop/Synchronized/Vintage/Computing/Atari/ST/brown/lib/gcc/m68k-atariextrabrowner-elf/10.2.0/../../../../m68k-atariextrabrowner-elf/lib/m68000/libc.a(strlen.o)
 .comment       0x0000000000000012       0x13 /Users/davidebucci/Desktop/Synchronized/Vintage/Computing/Atari/ST/brown/lib/gcc/m68k-atariextrabrowner-elf/10.2.0/../../../../m68k-atariextrabrowner-elf/lib/m68000/libc.a(strncat.o)
 .comment       0x0000000000000012       0x13 /Users/davidebucci/Desktop/Synchronized/Vintage/Computing/Atari/ST/brown/lib/gcc/m68k-atariextrabrowner-elf/10.2.0/../../../../m68k-atariextrabrowner-elf/lib/m68000/libc.a(strncmp.o)
 .comment       0x0000000000000012       0x13 /Users/davidebucci/Desktop/Synchronized/Vintage/Computing/Atari/ST/brown/lib/gcc/m68k-atariextrabrowner-elf/10.2.0/../../../../m68k-atariextrabrowner-elf/lib/m68000/libc.a(strncpy.o)
 .comment       0x0000000000000012       0x13 /Users/davidebucci/Desktop/Synchronized/Vintage/Computing/Atari/ST/brown/lib/gcc/m68k-atariextrabrowner-elf/10.2.0/../../../../m68k-atariextrabrowner-elf/lib/m68000/libc.a(strrchr.o)
 .comment       0x0000000000000012       0x13 /Users/davidebucci/Desktop/Synchronized/Vintage/Computing/Atari/ST/brown/lib/gcc/m68k-atariextrabrowner-elf/10.2.0/../../../../m68k-atariextrabrowner-elf/lib/m68000/libc.a(close.o)
 .comment       0x0000000000000012       0x13 /Users/davidebucci/Desktop/Synchronized/Vintage/Computing/Atari/ST/brown/lib/gcc/m68k-atariextrabrowner-elf/10.2.0/../../../../m68k-atariextrabrowner-elf/lib/m68000/libc.a(dup2.o)
 .comment       0x0000000000000012       0x13 /Users/davidebucci/Desktop/Synchronized/Vintage/Computing/Atari/ST/brown/lib/gcc/m68k-atariextrabrowner-elf/10.2.0/../../../../m68k-atariextrabrowner-elf/lib/m68000/libc.a(fstat.o)
 .comment       0x0000000000000012       0x13 /Users/davidebucci/Desktop/Synchronized/Vintage/Computing/Atari/ST/brown/lib/gcc/m68k-atariextrabrowner-elf/10.2.0/../../../../m68k-atariextrabrowner-elf/lib/m68000/libc.a(getpagesize.o)
 .comment       0x0000000000000012       0x13 /Users/davidebucci/Desktop/Synchronized/Vintage/Computing/Atari/ST/brown/lib/gcc/m68k-atariextrabrowner-elf/10.2.0/../../../../m68k-atariextrabrowner-elf/lib/m68000/libc.a(lseek.o)
 .comment       0x0000000000000012       0x13 /Users/davidebucci/Desktop/Synchronized/Vintage/Computing/Atari/ST/brown/lib/gcc/m68k-atariextrabrowner-elf/10.2.0/../../../../m68k-atariextrabrowner-elf/lib/m68000/libc.a(open.o)
 .comment       0x0000000000000012       0x13 /Users/davidebucci/Desktop/Synchronized/Vintage/Computing/Atari/ST/brown/lib/gcc/m68k-atariextrabrowner-elf/10.2.0/../../../../m68k-atariextrabrowner-elf/lib/m68000/libc.a(read.o)
 .comment       0x0000000000000012       0x13 /Users/davidebucci/Desktop/Synchronized/Vintage/Computing/Atari/ST/brown/lib/gcc/m68k-atariextrabrowner-elf/10.2.0/../../../../m68k-atariextrabrowner-elf/lib/m68000/libc.a(sbrk.o)
 .comment       0x0000000000000012       0x13 /Users/davidebucci/Desktop/Synchronized/Vintage/Computing/Atari/ST/brown/lib/gcc/m68k-atariextrabrowner-elf/10.2.0/../../../../m68k-atariextrabrowner-elf/lib/m68000/libc.a(sysctl.o)
 .comment       0x0000000000000012       0x13 /Users/davidebucci/Desktop/Synchronized/Vintage/Computing/Atari/ST/brown/lib/gcc/m68k-atariextrabrowner-elf/10.2.0/../../../../m68k-atariextrabrowner-elf/lib/m68000/libc.a(write.o)
 .comment       0x0000000000000012       0x13 /Users/davidebucci/Desktop/Synchronized/Vintage/Computing/Atari/ST/brown/lib/gcc/m68k-atariextrabrowner-elf/10.2.0/../../../../m68k-atariextrabrowner-elf/lib/m68000/libc.a(ident_sock.o)
 .comment       0x0000000000000012       0x13 /Users/davidebucci/Desktop/Synchronized/Vintage/Computing/Atari/ST/brown/lib/gcc/m68k-atariextrabrowner-elf/10.2.0/../../../../m68k-atariextrabrowner-elf/lib/m68000/libc.a(assert.o)
 .comment       0x0000000000000012       0x13 /Users/davidebucci/Desktop/Synchronized/Vintage/Computing/Atari/ST/brown/lib/gcc/m68k-atariextrabrowner-elf/10.2.0/../../../../m68k-atariextrabrowner-elf/lib/m68000/libc.a(console.o)
 .comment       0x0000000000000012       0x13 /Users/davidebucci/Desktop/Synchronized/Vintage/Computing/Atari/ST/brown/lib/gcc/m68k-atariextrabrowner-elf/10.2.0/../../../../m68k-atariextrabrowner-elf/lib/m68000/libc.a(ctype.o)
 .comment       0x0000000000000012       0x13 /Users/davidebucci/Desktop/Synchronized/Vintage/Computing/Atari/ST/brown/lib/gcc/m68k-atariextrabrowner-elf/10.2.0/../../../../m68k-atariextrabrowner-elf/lib/m68000/libc.a(do_fstat.o)
 .comment       0x0000000000000012       0x13 /Users/davidebucci/Desktop/Synchronized/Vintage/Computing/Atari/ST/brown/lib/gcc/m68k-atariextrabrowner-elf/10.2.0/../../../../m68k-atariextrabrowner-elf/lib/m68000/libc.a(enoent.o)
 .comment       0x0000000000000012       0x13 /Users/davidebucci/Desktop/Synchronized/Vintage/Computing/Atari/ST/brown/lib/gcc/m68k-atariextrabrowner-elf/10.2.0/../../../../m68k-atariextrabrowner-elf/lib/m68000/libc.a(inode.o)
 .comment       0x0000000000000012       0x13 /Users/davidebucci/Desktop/Synchronized/Vintage/Computing/Atari/ST/brown/lib/gcc/m68k-atariextrabrowner-elf/10.2.0/../../../../m68k-atariextrabrowner-elf/lib/m68000/libc.a(isatty.o)
 .comment       0x0000000000000012       0x13 /Users/davidebucci/Desktop/Synchronized/Vintage/Computing/Atari/ST/brown/lib/gcc/m68k-atariextrabrowner-elf/10.2.0/../../../../m68k-atariextrabrowner-elf/lib/m68000/libc.a(isctty.o)
 .comment       0x0000000000000012       0x13 /Users/davidebucci/Desktop/Synchronized/Vintage/Computing/Atari/ST/brown/lib/gcc/m68k-atariextrabrowner-elf/10.2.0/../../../../m68k-atariextrabrowner-elf/lib/m68000/libc.a(quickstat.o)
 .comment       0x0000000000000012       0x13 /Users/davidebucci/Desktop/Synchronized/Vintage/Computing/Atari/ST/brown/lib/gcc/m68k-atariextrabrowner-elf/10.2.0/../../../../m68k-atariextrabrowner-elf/lib/m68000/libc.a(toxxx.o)
 .comment       0x0000000000000012       0x13 /Users/davidebucci/Desktop/Synchronized/Vintage/Computing/Atari/ST/brown/lib/gcc/m68k-atariextrabrowner-elf/10.2.0/../../../../m68k-atariextrabrowner-elf/lib/m68000/libc.a(unixtime.o)
 .comment       0x0000000000000012       0x13 /Users/davidebucci/Desktop/Synchronized/Vintage/Computing/Atari/ST/brown/lib/gcc/m68k-atariextrabrowner-elf/10.2.0/../../../../m68k-atariextrabrowner-elf/lib/m68000/libc.a(raise.o)
 .comment       0x0000000000000012       0x13 /Users/davidebucci/Desktop/Synchronized/Vintage/Computing/Atari/ST/brown/lib/gcc/m68k-atariextrabrowner-elf/10.2.0/../../../../m68k-atariextrabrowner-elf/lib/m68000/libc.a(fcloseall.o)
 .comment       0x0000000000000012       0x13 /Users/davidebucci/Desktop/Synchronized/Vintage/Computing/Atari/ST/brown/lib/gcc/m68k-atariextrabrowner-elf/10.2.0/../../../../m68k-atariextrabrowner-elf/lib/m68000/libc.a(fflush.o)
 .comment       0x0000000000000012       0x13 /Users/davidebucci/Desktop/Synchronized/Vintage/Computing/Atari/ST/brown/lib/gcc/m68k-atariextrabrowner-elf/10.2.0/../../../../m68k-atariextrabrowner-elf/lib/m68000/libc.a(itoa-digits.o)
 .comment       0x0000000000000012       0x13 /Users/davidebucci/Desktop/Synchronized/Vintage/Computing/Atari/ST/brown/lib/gcc/m68k-atariextrabrowner-elf/10.2.0/../../../../m68k-atariextrabrowner-elf/lib/m68000/libc.a(strtoul.o)
 .comment       0x0000000000000012       0x13 /Users/davidebucci/Desktop/Synchronized/Vintage/Computing/Atari/ST/brown/lib/gcc/m68k-atariextrabrowner-elf/10.2.0/../../../../m68k-atariextrabrowner-elf/lib/m68000/libc.a(strchr.o)
 .comment       0x0000000000000012       0x13 /Users/davidebucci/Desktop/Synchronized/Vintage/Computing/Atari/ST/brown/lib/gcc/m68k-atariextrabrowner-elf/10.2.0/../../../../m68k-atariextrabrowner-elf/lib/m68000/libc.a(localtime.o)
 .comment       0x0000000000000012       0x13 /Users/davidebucci/Desktop/Synchronized/Vintage/Computing/Atari/ST/brown/lib/gcc/m68k-atariextrabrowner-elf/10.2.0/../../../../m68k-atariextrabrowner-elf/lib/m68000/libc.a(access.o)
 .comment       0x0000000000000012       0x13 /Users/davidebucci/Desktop/Synchronized/Vintage/Computing/Atari/ST/brown/lib/gcc/m68k-atariextrabrowner-elf/10.2.0/../../../../m68k-atariextrabrowner-elf/lib/m68000/libc.a(chmod.o)
 .comment       0x0000000000000012       0x13 /Users/davidebucci/Desktop/Synchronized/Vintage/Computing/Atari/ST/brown/lib/gcc/m68k-atariextrabrowner-elf/10.2.0/../../../../m68k-atariextrabrowner-elf/lib/m68000/libc.a(getegid.o)
 .comment       0x0000000000000012       0x13 /Users/davidebucci/Desktop/Synchronized/Vintage/Computing/Atari/ST/brown/lib/gcc/m68k-atariextrabrowner-elf/10.2.0/../../../../m68k-atariextrabrowner-elf/lib/m68000/libc.a(geteuid.o)
 .comment       0x0000000000000012       0x13 /Users/davidebucci/Desktop/Synchronized/Vintage/Computing/Atari/ST/brown/lib/gcc/m68k-atariextrabrowner-elf/10.2.0/../../../../m68k-atariextrabrowner-elf/lib/m68000/libc.a(getgid.o)
 .comment       0x0000000000000012       0x13 /Users/davidebucci/Desktop/Synchronized/Vintage/Computing/Atari/ST/brown/lib/gcc/m68k-atariextrabrowner-elf/10.2.0/../../../../m68k-atariextrabrowner-elf/lib/m68000/libc.a(getgroups.o)
 .comment       0x0000000000000012       0x13 /Users/davidebucci/Desktop/Synchronized/Vintage/Computing/Atari/ST/brown/lib/gcc/m68k-atariextrabrowner-elf/10.2.0/../../../../m68k-atariextrabrowner-elf/lib/m68000/libc.a(getpid.o)
 .comment       0x0000000000000012       0x13 /Users/davidebucci/Desktop/Synchronized/Vintage/Computing/Atari/ST/brown/lib/gcc/m68k-atariextrabrowner-elf/10.2.0/../../../../m68k-atariextrabrowner-elf/lib/m68000/libc.a(getuid.o)
 .comment       0x0000000000000012       0x13 /Users/davidebucci/Desktop/Synchronized/Vintage/Computing/Atari/ST/brown/lib/gcc/m68k-atariextrabrowner-elf/10.2.0/../../../../m68k-atariextrabrowner-elf/lib/m68000/libc.a(ioctl.o)
 .comment       0x0000000000000012       0x13 /Users/davidebucci/Desktop/Synchronized/Vintage/Computing/Atari/ST/brown/lib/gcc/m68k-atariextrabrowner-elf/10.2.0/../../../../m68k-atariextrabrowner-elf/lib/m68000/libc.a(kill.o)
 .comment       0x0000000000000012       0x13 /Users/davidebucci/Desktop/Synchronized/Vintage/Computing/Atari/ST/brown/lib/gcc/m68k-atariextrabrowner-elf/10.2.0/../../../../m68k-atariextrabrowner-elf/lib/m68000/libc.a(time.o)
 .comment       0x0000000000000012       0x13 /Users/davidebucci/Desktop/Synchronized/Vintage/Computing/Atari/ST/brown/lib/gcc/m68k-atariextrabrowner-elf/10.2.0/../../../../m68k-atariextrabrowner-elf/lib/m68000/libc.a(abort.o)
 .comment       0x0000000000000012       0x13 /Users/davidebucci/Desktop/Synchronized/Vintage/Computing/Atari/ST/brown/lib/gcc/m68k-atariextrabrowner-elf/10.2.0/../../../../m68k-atariextrabrowner-elf/lib/m68000/libc.a(alglobal.o)
 .comment       0x0000000000000012       0x13 /Users/davidebucci/Desktop/Synchronized/Vintage/Computing/Atari/ST/brown/lib/gcc/m68k-atariextrabrowner-elf/10.2.0/../../../../m68k-atariextrabrowner-elf/lib/m68000/libc.a(calloc.o)
 .comment       0x0000000000000012       0x13 /Users/davidebucci/Desktop/Synchronized/Vintage/Computing/Atari/ST/brown/lib/gcc/m68k-atariextrabrowner-elf/10.2.0/../../../../m68k-atariextrabrowner-elf/lib/m68000/libc.a(do_stat.o)
 .comment       0x0000000000000012       0x13 /Users/davidebucci/Desktop/Synchronized/Vintage/Computing/Atari/ST/brown/lib/gcc/m68k-atariextrabrowner-elf/10.2.0/../../../../m68k-atariextrabrowner-elf/lib/m68000/libc.a(uidgid.o)
 .comment       0x0000000000000012       0x13 /Users/davidebucci/Desktop/Synchronized/Vintage/Computing/Atari/ST/brown/lib/gcc/m68k-atariextrabrowner-elf/10.2.0/../../../../m68k-atariextrabrowner-elf/lib/m68000/libc.a(getpwuid.o)
 .comment       0x0000000000000012       0x13 /Users/davidebucci/Desktop/Synchronized/Vintage/Computing/Atari/ST/brown/lib/gcc/m68k-atariextrabrowner-elf/10.2.0/../../../../m68k-atariextrabrowner-elf/lib/m68000/libc.a(getpwuid_r.o)
 .comment       0x0000000000000012       0x13 /Users/davidebucci/Desktop/Synchronized/Vintage/Computing/Atari/ST/brown/lib/gcc/m68k-atariextrabrowner-elf/10.2.0/../../../../m68k-atariextrabrowner-elf/lib/m68000/libc.a(grp.o)
 .comment       0x0000000000000012       0x13 /Users/davidebucci/Desktop/Synchronized/Vintage/Computing/Atari/ST/brown/lib/gcc/m68k-atariextrabrowner-elf/10.2.0/../../../../m68k-atariextrabrowner-elf/lib/m68000/libc.a(rewind.o)
 .comment       0x0000000000000012       0x13 /Users/davidebucci/Desktop/Synchronized/Vintage/Computing/Atari/ST/brown/lib/gcc/m68k-atariextrabrowner-elf/10.2.0/../../../../m68k-atariextrabrowner-elf/lib/m68000/libc.a(asctime.o)
 .comment       0x0000000000000012       0x13 /Users/davidebucci/Desktop/Synchronized/Vintage/Computing/Atari/ST/brown/lib/gcc/m68k-atariextrabrowner-elf/10.2.0/../../../../m68k-atariextrabrowner-elf/lib/m68000/libc.a(strftime.o)
 .comment       0x0000000000000012       0x13 /Users/davidebucci/Desktop/Synchronized/Vintage/Computing/Atari/ST/brown/lib/gcc/m68k-atariextrabrowner-elf/10.2.0/../../../../m68k-atariextrabrowner-elf/lib/m68000/libc.a(gettimeofday.o)
 .comment       0x0000000000000012       0x13 /Users/davidebucci/Desktop/Synchronized/Vintage/Computing/Atari/ST/brown/lib/gcc/m68k-atariextrabrowner-elf/10.2.0/../../../../m68k-atariextrabrowner-elf/lib/m68000/libc.a(setlocale.o)
 .comment       0x0000000000000012       0x13 /Users/davidebucci/Desktop/Synchronized/Vintage/Computing/Atari/ST/brown/lib/gcc/m68k-atariextrabrowner-elf/10.2.0/../../../../m68k-atariextrabrowner-elf/lib/m68000/libc.a(fgetpwent_r.o)
 .comment       0x0000000000000012       0x13 /Users/davidebucci/Desktop/Synchronized/Vintage/Computing/Atari/ST/brown/lib/gcc/m68k-atariextrabrowner-elf/10.2.0/../../../../m68k-atariextrabrowner-elf/lib/m68000/libc.a(clearerr.o)
 .comment       0x0000000000000012       0x13 /Users/davidebucci/Desktop/Synchronized/Vintage/Computing/Atari/ST/brown/lib/gcc/m68k-atariextrabrowner-elf/10.2.0/../../../../m68k-atariextrabrowner-elf/lib/m68000/libc.a(fprintf.o)
 .comment       0x0000000000000012       0x13 /Users/davidebucci/Desktop/Synchronized/Vintage/Computing/Atari/ST/brown/lib/gcc/m68k-atariextrabrowner-elf/10.2.0/../../../../m68k-atariextrabrowner-elf/lib/m68000/libc.a(fputc.o)
 .comment       0x0000000000000012       0x13 /Users/davidebucci/Desktop/Synchronized/Vintage/Computing/Atari/ST/brown/lib/gcc/m68k-atariextrabrowner-elf/10.2.0/../../../../m68k-atariextrabrowner-elf/lib/m68000/libc.a(fseek.o)
 .comment       0x0000000000000012       0x13 /Users/davidebucci/Desktop/Synchronized/Vintage/Computing/Atari/ST/brown/lib/gcc/m68k-atariextrabrowner-elf/10.2.0/../../../../m68k-atariextrabrowner-elf/lib/m68000/libc.a(fwrite.o)
 .comment       0x0000000000000012       0x13 /Users/davidebucci/Desktop/Synchronized/Vintage/Computing/Atari/ST/brown/lib/gcc/m68k-atariextrabrowner-elf/10.2.0/../../../../m68k-atariextrabrowner-elf/lib/m68000/libc.a(sprintf.o)
 .comment       0x0000000000000012       0x13 /Users/davidebucci/Desktop/Synchronized/Vintage/Computing/Atari/ST/brown/lib/gcc/m68k-atariextrabrowner-elf/10.2.0/../../../../m68k-atariextrabrowner-elf/lib/m68000/libc.a(ungetc.o)
 .comment       0x0000000000000012       0x13 /Users/davidebucci/Desktop/Synchronized/Vintage/Computing/Atari/ST/brown/lib/gcc/m68k-atariextrabrowner-elf/10.2.0/../../../../m68k-atariextrabrowner-elf/lib/m68000/libc.a(vfprintf.o)
 .comment       0x0000000000000012       0x13 /Users/davidebucci/Desktop/Synchronized/Vintage/Computing/Atari/ST/brown/lib/gcc/m68k-atariextrabrowner-elf/10.2.0/../../../../m68k-atariextrabrowner-elf/lib/m68000/libc.a(vsprintf.o)
 .comment       0x0000000000000012       0x13 /Users/davidebucci/Desktop/Synchronized/Vintage/Computing/Atari/ST/brown/lib/gcc/m68k-atariextrabrowner-elf/10.2.0/../../../../m68k-atariextrabrowner-elf/lib/m68000/libc.a(memchr.o)
 .comment       0x0000000000000012       0x13 /Users/davidebucci/Desktop/Synchronized/Vintage/Computing/Atari/ST/brown/lib/gcc/m68k-atariextrabrowner-elf/10.2.0/../../../../m68k-atariextrabrowner-elf/lib/m68000/libc.a(mempcpy.o)
 .comment       0x0000000000000012       0x13 /Users/davidebucci/Desktop/Synchronized/Vintage/Computing/Atari/ST/brown/lib/gcc/m68k-atariextrabrowner-elf/10.2.0/../../../../m68k-atariextrabrowner-elf/lib/m68000/libc.a(strcpy.o)
 .comment       0x0000000000000012       0x13 /Users/davidebucci/Desktop/Synchronized/Vintage/Computing/Atari/ST/brown/lib/gcc/m68k-atariextrabrowner-elf/10.2.0/../../../../m68k-atariextrabrowner-elf/lib/m68000/libc.a(strerror_r.o)
 .comment       0x0000000000000012       0x13 /Users/davidebucci/Desktop/Synchronized/Vintage/Computing/Atari/ST/brown/lib/gcc/m68k-atariextrabrowner-elf/10.2.0/../../../../m68k-atariextrabrowner-elf/lib/m68000/libc.a(strnlen.o)
 .comment       0x0000000000000012       0x13 /Users/davidebucci/Desktop/Synchronized/Vintage/Computing/Atari/ST/brown/lib/gcc/m68k-atariextrabrowner-elf/10.2.0/../../../../m68k-atariextrabrowner-elf/lib/m68000/libc.a(_itoa.o)
 .comment       0x0000000000000012       0x13 /Users/davidebucci/Desktop/Synchronized/Vintage/Computing/Atari/ST/brown/lib/gcc/m68k-atariextrabrowner-elf/10.2.0/../../../../m68k-atariextrabrowner-elf/lib/m68000/libc.a(lockfile.o)
 .comment       0x0000000000000012       0x13 /Users/davidebucci/Desktop/Synchronized/Vintage/Computing/Atari/ST/brown/lib/gcc/m68k-atariextrabrowner-elf/10.2.0/../../../../m68k-atariextrabrowner-elf/lib/m68000/libc.a(printf_fp.o)
 .comment       0x0000000000000012       0x13 /Users/davidebucci/Desktop/Synchronized/Vintage/Computing/Atari/ST/brown/lib/gcc/m68k-atariextrabrowner-elf/10.2.0/../../../../m68k-atariextrabrowner-elf/lib/m68000/libc.a(printf_fphex.o)
 .comment       0x0000000000000012       0x13 /Users/davidebucci/Desktop/Synchronized/Vintage/Computing/Atari/ST/brown/lib/gcc/m68k-atariextrabrowner-elf/10.2.0/../../../../m68k-atariextrabrowner-elf/lib/m68000/libc.a(reg-printf.o)
 .comment       0x0000000000000012       0x13 /Users/davidebucci/Desktop/Synchronized/Vintage/Computing/Atari/ST/brown/lib/gcc/m68k-atariextrabrowner-elf/10.2.0/../../../../m68k-atariextrabrowner-elf/lib/m68000/libc.a(fpioconst.o)
 .comment       0x0000000000000012       0x13 /Users/davidebucci/Desktop/Synchronized/Vintage/Computing/Atari/ST/brown/lib/gcc/m68k-atariextrabrowner-elf/10.2.0/../../../../m68k-atariextrabrowner-elf/lib/m68000/libc.a(strerror.o)
 .comment       0x0000000000000012       0x13 /Users/davidebucci/Desktop/Synchronized/Vintage/Computing/Atari/ST/brown/lib/gcc/m68k-atariextrabrowner-elf/10.2.0/../../../../m68k-atariextrabrowner-elf/lib/m68000/libc.a(dbl2mpn.o)
 .comment       0x0000000000000012       0x13 /Users/davidebucci/Desktop/Synchronized/Vintage/Computing/Atari/ST/brown/lib/gcc/m68k-atariextrabrowner-elf/10.2.0/../../../../m68k-atariextrabrowner-elf/lib/m68000/libc.a(ldbl2mpn.o)
 .comment       0x0000000000000012       0x13 /Users/davidebucci/Desktop/Synchronized/Vintage/Computing/Atari/ST/brown/lib/gcc/m68k-atariextrabrowner-elf/10.2.0/../../../../m68k-atariextrabrowner-elf/lib/m68000/libc.a(mp_clz_tab.o)
 .comment       0x0000000000000012       0x13 /Users/davidebucci/Desktop/Synchronized/Vintage/Computing/Atari/ST/brown/lib/gcc/m68k-atariextrabrowner-elf/10.2.0/../../../../m68k-atariextrabrowner-elf/lib/m68000/libc.a(mpn-cmp.o)
 .comment       0x0000000000000012       0x13 /Users/davidebucci/Desktop/Synchronized/Vintage/Computing/Atari/ST/brown/lib/gcc/m68k-atariextrabrowner-elf/10.2.0/../../../../m68k-atariextrabrowner-elf/lib/m68000/libc.a(mpn-divrem.o)
 .comment       0x0000000000000012       0x13 /Users/davidebucci/Desktop/Synchronized/Vintage/Computing/Atari/ST/brown/lib/gcc/m68k-atariextrabrowner-elf/10.2.0/../../../../m68k-atariextrabrowner-elf/lib/m68000/libc.a(mpn-lshift.o)
 .comment       0x0000000000000012       0x13 /Users/davidebucci/Desktop/Synchronized/Vintage/Computing/Atari/ST/brown/lib/gcc/m68k-atariextrabrowner-elf/10.2.0/../../../../m68k-atariextrabrowner-elf/lib/m68000/libc.a(mpn-mul.o)
 .comment       0x0000000000000012       0x13 /Users/davidebucci/Desktop/Synchronized/Vintage/Computing/Atari/ST/brown/lib/gcc/m68k-atariextrabrowner-elf/10.2.0/../../../../m68k-atariextrabrowner-elf/lib/m68000/libc.a(mpn-mul_1.o)
 .comment       0x0000000000000012       0x13 /Users/davidebucci/Desktop/Synchronized/Vintage/Computing/Atari/ST/brown/lib/gcc/m68k-atariextrabrowner-elf/10.2.0/../../../../m68k-atariextrabrowner-elf/lib/m68000/libc.a(mpn-mul_n.o)
 .comment       0x0000000000000012       0x13 /Users/davidebucci/Desktop/Synchronized/Vintage/Computing/Atari/ST/brown/lib/gcc/m68k-atariextrabrowner-elf/10.2.0/../../../../m68k-atariextrabrowner-elf/lib/m68000/libc.a(mpn-rshift.o)
 .comment       0x0000000000000012       0x13 /Users/davidebucci/Desktop/Synchronized/Vintage/Computing/Atari/ST/brown/lib/gcc/m68k-atariextrabrowner-elf/10.2.0/../../../../m68k-atariextrabrowner-elf/lib/m68000/libc.a(mpn-sub_n.o)
 .comment       0x0000000000000012       0x13 /Users/davidebucci/Desktop/Synchronized/Vintage/Computing/Atari/ST/brown/lib/gcc/m68k-atariextrabrowner-elf/10.2.0/../../../../m68k-atariextrabrowner-elf/lib/m68000/libc.a(mpn-submul_1.o)
 .comment       0x0000000000000012       0x13 /Users/davidebucci/Desktop/Synchronized/Vintage/Computing/Atari/ST/brown/lib/gcc/m68k-atariextrabrowner-elf/10.2.0/../../../../m68k-atariextrabrowner-elf/lib/m68000/libc.a(s_isinf.o)
 .comment       0x0000000000000012       0x13 /Users/davidebucci/Desktop/Synchronized/Vintage/Computing/Atari/ST/brown/lib/gcc/m68k-atariextrabrowner-elf/10.2.0/../../../../m68k-atariextrabrowner-elf/lib/m68000/libc.a(s_isinfl.o)
 .comment       0x0000000000000012       0x13 /Users/davidebucci/Desktop/Synchronized/Vintage/Computing/Atari/ST/brown/lib/gcc/m68k-atariextrabrowner-elf/10.2.0/../../../../m68k-atariextrabrowner-elf/lib/m68000/libc.a(s_isnan.o)
 .comment       0x0000000000000012       0x13 /Users/davidebucci/Desktop/Synchronized/Vintage/Computing/Atari/ST/brown/lib/gcc/m68k-atariextrabrowner-elf/10.2.0/../../../../m68k-atariextrabrowner-elf/lib/m68000/libc.a(s_isnanl.o)
 .comment       0x0000000000000012       0x13 /Users/davidebucci/Desktop/Synchronized/Vintage/Computing/Atari/ST/brown/lib/gcc/m68k-atariextrabrowner-elf/10.2.0/../../../../m68k-atariextrabrowner-elf/lib/m68000/libc.a(s_signbit.o)
 .comment       0x0000000000000012       0x13 /Users/davidebucci/Desktop/Synchronized/Vintage/Computing/Atari/ST/brown/lib/gcc/m68k-atariextrabrowner-elf/10.2.0/../../../../m68k-atariextrabrowner-elf/lib/m68000/libc.a(s_signbitl.o)
 .comment       0x0000000000000012       0x13 /Users/davidebucci/Desktop/Synchronized/Vintage/Computing/Atari/ST/brown/lib/gcc/m68k-atariextrabrowner-elf/10.2.0/../../../../m68k-atariextrabrowner-elf/lib/m68000/libc.a(snprintf.o)
 .comment       0x0000000000000012       0x13 /Users/davidebucci/Desktop/Synchronized/Vintage/Computing/Atari/ST/brown/lib/gcc/m68k-atariextrabrowner-elf/10.2.0/../../../../m68k-atariextrabrowner-elf/lib/m68000/libc.a(vsnprintf.o)
 .comment       0x0000000000000012       0x13 /Users/davidebucci/Desktop/Synchronized/Vintage/Computing/Atari/ST/brown/lib/gcc/m68k-atariextrabrowner-elf/10.2.0/../../../../m68k-atariextrabrowner-elf/lib/m68000/libc.a(mpn-add_n.o)
 .comment       0x0000000000000012       0x13 /Users/davidebucci/Desktop/Synchronized/Vintage/Computing/Atari/ST/brown/lib/gcc/m68k-atariextrabrowner-elf/10.2.0/../../../../m68k-atariextrabrowner-elf/lib/m68000/libc.a(mpn-addmul_1.o)
 .comment       0x0000000000000012       0x13 /Users/davidebucci/Desktop/Synchronized/Vintage/Computing/Atari/ST/brown/lib/gcc/m68k-atariextrabrowner-elf/10.2.0/../../../../m68k-atariextrabrowner-elf/lib/m68000/libc.a(fputs.o)
 .comment       0x0000000000000012       0x13 /Users/davidebucci/Desktop/Synchronized/Vintage/Computing/Atari/ST/brown//lib/gcc/m68k-atariextrabrowner-elf/10.2.0/m68000/libgcc.a(fpgnulib.o)
 .comment       0x0000000000000012       0x13 /Users/davidebucci/Desktop/Synchronized/Vintage/Computing/Atari/ST/brown//lib/gcc/m68k-atariextrabrowner-elf/10.2.0/m68000/libgcc.a(xfgnulib.o)
 .comment       0x0000000000000012       0x13 /Users/davidebucci/Desktop/Synchronized/Vintage/Computing/Atari/ST/brown/lib/gcc/m68k-atariextrabrowner-elf/10.2.0/m68000/crtend.o

.gnu.build.attributes
 *(.gnu.build.attributes .gnu.build.attributes.*)

.debug
 *(.debug)

.line
 *(.line)

.debug_srcinfo
 *(.debug_srcinfo)

.debug_sfnames
 *(.debug_sfnames)

.debug_aranges
 *(.debug_aranges)

.debug_pubnames
 *(.debug_pubnames)

.debug_info
 *(.debug_info .gnu.linkonce.wi.*)

.debug_abbrev
 *(.debug_abbrev)

.debug_line
 *(.debug_line .debug_line.* .debug_line_end)

.debug_frame
 *(.debug_frame)

.debug_str
 *(.debug_str)

.debug_loc
 *(.debug_loc)

.debug_macinfo
 *(.debug_macinfo)

.debug_weaknames
 *(.debug_weaknames)

.debug_funcnames
 *(.debug_funcnames)

.debug_typenames
 *(.debug_typenames)

.debug_varnames
 *(.debug_varnames)

.debug_pubtypes
 *(.debug_pubtypes)

.debug_ranges
 *(.debug_ranges)

.debug_macro
 *(.debug_macro)

.debug_addr
 *(.debug_addr)

.gnu.attributes
 *(.gnu.attributes)

/DISCARD/
 *(.note.GNU-stack)
 *(.gnu_debuglink)
 *(.gnu.lto_*)
OUTPUT(tdttr40.elf elf32-m68k)
